Archive member included to satisfy reference by file (symbol)

libmsp430_obc.a(loc_provider_vm_if.o)
                              main.o (init_loc_provider)
libmsp430_obc.a(msp430_eusci_a_serial_minimal.o)
                              main.o (msp430_eusci_a_serial_minimal_init)
libmsp430_obc.a(port.o)       libmsp430_obc.a(msp430_eusci_a_serial_minimal.o) (usCriticalNesting)
libmsp430_obc.a(queue.o)      main.o (xQueueGenericCreateStatic)
libmsp430_obc.a(state_handler_entrypoint_vm_if.o)
                              main.o (init_state_handler_entrypoint)
libmsp430_obc.a(tasks.o)      libmsp430_obc.a(port.o) (pxCurrentTCB)
libmsp430_obc.a(tc_provider_vm_if.o)
                              main.o (init_tc_provider)
libmsp430_obc.a(tc_validation_vm_if.o)
                              main.o (init_tc_validation)
libmsp430_obc.a(thread_state_handler_entrypoint_poll_aoi.o)
                              main.o (prv_state_handler_entrypoint_poll_aoi_Task)
libmsp430_obc.a(thread_state_handler_entrypoint_poll_mcp.o)
                              main.o (prv_state_handler_entrypoint_poll_mcp_Task)
libmsp430_obc.a(thread_state_handler_entrypoint_toggle_pwr.o)
                              main.o (prv_state_handler_entrypoint_toggle_pwr_Task)
libmsp430_obc.a(thread_state_handler_entrypoint_trig_aoi.o)
                              main.o (prv_state_handler_entrypoint_trig_aoi_Task)
libmsp430_obc.a(thread_state_handler_entrypoint_trig_mcp.o)
                              main.o (prv_state_handler_entrypoint_trig_mcp_Task)
libmsp430_obc.a(thread_state_handler_entrypoint_trig_pwr.o)
                              main.o (prv_state_handler_entrypoint_trig_pwr_Task)
libmsp430_obc.a(timers.o)     libmsp430_obc.a(tasks.o) (xTimerCreateTimerTask)
libmsp430_obc.a(tm_collection_vm_if.o)
                              main.o (init_tm_collection)
libmsp430_obc.a(tm_provider_vm_if.o)
                              main.o (init_tm_provider)
libmsp430_obc.a(transport.o)  libmsp430_obc.a(msp430_eusci_a_serial_minimal.o) (register_remote_transport_func)
libmsp430_obc.a(State_Handler_Entrypoint.o)
                              libmsp430_obc.a(state_handler_entrypoint_vm_if.o) (CInitState_Handler_Entrypoint)
libmsp430_obc.a(drivers_config.o)
                              libmsp430_obc.a(msp430_eusci_a_serial_minimal.o) (pohidrv_node_2_msp430_eusci_a_serial_minimal)
libmsp430_obc.a(list.o)       libmsp430_obc.a(queue.o) (vListInitialise)
libmsp430_obc.a(loc_provider.o)
                              libmsp430_obc.a(loc_provider_vm_if.o) (loc_provider_startup)
libmsp430_obc.a(msp430_obc_interface.o)
                              libmsp430_obc.a(thread_state_handler_entrypoint_poll_aoi.o) (call_state_handler_entrypoint_poll_aoi)
libmsp430_obc.a(state_handler_entrypoint_invoke_ri.o)
                              libmsp430_obc.a(State_Handler_Entrypoint.o) (state_handler_entrypoint_RI_request_loc)
libmsp430_obc.a(tc_provider.o)
                              libmsp430_obc.a(tc_provider_vm_if.o) (tc_provider_startup)
libmsp430_obc.a(tc_validation.o)
                              libmsp430_obc.a(tc_validation_vm_if.o) (tc_validation_startup)
libmsp430_obc.a(tm_collection.o)
                              libmsp430_obc.a(tm_collection_vm_if.o) (tm_collection_startup)
libmsp430_obc.a(tm_provider.o)
                              libmsp430_obc.a(tm_provider_vm_if.o) (tm_provider_startup)
/opt/msp430-gcc/bin/../lib/gcc/msp430-elf/8.3.1/large/full-memory-range/libgcc.a(lib2divSI.o)
                              libmsp430_obc.a(State_Handler_Entrypoint.o) (__mspabi_remul)
/opt/msp430-gcc/bin/../lib/gcc/msp430-elf/8.3.1/large/full-memory-range/libgcc.a(slli.o)
                              libmsp430_obc.a(tasks.o) (__mspabi_slll)
/opt/msp430-gcc/bin/../lib/gcc/msp430-elf/8.3.1/large/full-memory-range/libgcc.a(_udivdi3.o)
                              /opt/msp430-gcc/bin/../lib/gcc/msp430-elf/8.3.1/large/full-memory-range/libgcc.a(lib2divSI.o) (__mspabi_divull)
/opt/msp430-gcc/bin/../lib/gcc/msp430-elf/8.3.1/large/full-memory-range/libgcc.a(srli.o)
                              /opt/msp430-gcc/bin/../lib/gcc/msp430-elf/8.3.1/large/full-memory-range/libgcc.a(_udivdi3.o) (__mspabi_srlll)
/opt/msp430-gcc/bin/../lib/gcc/msp430-elf/8.3.1/large/full-memory-range/libgcc.a(_clzdi2.o)
                              /opt/msp430-gcc/bin/../lib/gcc/msp430-elf/8.3.1/large/full-memory-range/libgcc.a(_udivdi3.o) (__clzdi2)
/opt/msp430-gcc/bin/../lib/gcc/msp430-elf/8.3.1/large/full-memory-range/libgcc.a(_clz.o)
                              /opt/msp430-gcc/bin/../lib/gcc/msp430-elf/8.3.1/large/full-memory-range/libgcc.a(_clzdi2.o) (__clz_tab)
/opt/msp430-gcc/bin/../lib/gcc/msp430-elf/8.3.1/large/full-memory-range/libmul_f5.a(lib2hw_mul_f5.o)
                              libmsp430_obc.a(queue.o) (__mspabi_mpyul_f5hw)
/opt/msp430-gcc/bin/../lib/gcc/msp430-elf/8.3.1/../../../../msp430-elf/lib/large/full-memory-range/libc.a(lib_a-memcpy.o)
                              libmsp430_obc.a(msp430_eusci_a_serial_minimal.o) (memcpy)
/opt/msp430-gcc/bin/../lib/gcc/msp430-elf/8.3.1/../../../../msp430-elf/lib/large/full-memory-range/libc.a(lib_a-memset.o)
                              libmsp430_obc.a(tasks.o) (memset)
/opt/msp430-gcc/bin/../lib/gcc/msp430-elf/8.3.1/../../../../msp430-elf/lib/large/full-memory-range/libc.a(lib_a-printf.o)
                              libmsp430_obc.a(State_Handler_Entrypoint.o) (printf)
/opt/msp430-gcc/bin/../lib/gcc/msp430-elf/8.3.1/../../../../msp430-elf/lib/large/full-memory-range/libc.a(lib_a-putchar.o)
                              libmsp430_obc.a(State_Handler_Entrypoint.o) (putchar)
/opt/msp430-gcc/bin/../lib/gcc/msp430-elf/8.3.1/../../../../msp430-elf/lib/large/full-memory-range/libc.a(lib_a-putc.o)
                              /opt/msp430-gcc/bin/../lib/gcc/msp430-elf/8.3.1/../../../../msp430-elf/lib/large/full-memory-range/libc.a(lib_a-putchar.o) (_putc_r)
/opt/msp430-gcc/bin/../lib/gcc/msp430-elf/8.3.1/../../../../msp430-elf/lib/large/full-memory-range/libc.a(lib_a-puts.o)
                              libmsp430_obc.a(loc_provider.o) (puts)
/opt/msp430-gcc/bin/../lib/gcc/msp430-elf/8.3.1/../../../../msp430-elf/lib/large/full-memory-range/libc.a(lib_a-strlen.o)
                              /opt/msp430-gcc/bin/../lib/gcc/msp430-elf/8.3.1/../../../../msp430-elf/lib/large/full-memory-range/libc.a(lib_a-puts.o) (strlen)
/opt/msp430-gcc/bin/../lib/gcc/msp430-elf/8.3.1/../../../../msp430-elf/lib/large/full-memory-range/libc.a(lib_a-wbuf.o)
                              /opt/msp430-gcc/bin/../lib/gcc/msp430-elf/8.3.1/../../../../msp430-elf/lib/large/full-memory-range/libc.a(lib_a-putc.o) (__swbuf_r)
/opt/msp430-gcc/bin/../lib/gcc/msp430-elf/8.3.1/../../../../msp430-elf/lib/large/full-memory-range/libc.a(lib_a-wsetup.o)
                              /opt/msp430-gcc/bin/../lib/gcc/msp430-elf/8.3.1/../../../../msp430-elf/lib/large/full-memory-range/libc.a(lib_a-wbuf.o) (__swsetup_r)
/opt/msp430-gcc/bin/../lib/gcc/msp430-elf/8.3.1/../../../../msp430-elf/lib/large/full-memory-range/libc.a(lib_a-fflush.o)
                              /opt/msp430-gcc/bin/../lib/gcc/msp430-elf/8.3.1/../../../../msp430-elf/lib/large/full-memory-range/libc.a(lib_a-wbuf.o) (_fflush_r)
/opt/msp430-gcc/bin/../lib/gcc/msp430-elf/8.3.1/../../../../msp430-elf/lib/large/full-memory-range/libc.a(lib_a-findfp.o)
                              /opt/msp430-gcc/bin/../lib/gcc/msp430-elf/8.3.1/../../../../msp430-elf/lib/large/full-memory-range/libc.a(lib_a-printf.o) (__sinit)
/opt/msp430-gcc/bin/../lib/gcc/msp430-elf/8.3.1/../../../../msp430-elf/lib/large/full-memory-range/libc.a(lib_a-fvwrite.o)
                              /opt/msp430-gcc/bin/../lib/gcc/msp430-elf/8.3.1/../../../../msp430-elf/lib/large/full-memory-range/libc.a(lib_a-puts.o) (__sfvwrite_r)
/opt/msp430-gcc/bin/../lib/gcc/msp430-elf/8.3.1/../../../../msp430-elf/lib/large/full-memory-range/libc.a(lib_a-fwalk.o)
                              /opt/msp430-gcc/bin/../lib/gcc/msp430-elf/8.3.1/../../../../msp430-elf/lib/large/full-memory-range/libc.a(lib_a-findfp.o) (_fwalk)
/opt/msp430-gcc/bin/../lib/gcc/msp430-elf/8.3.1/../../../../msp430-elf/lib/large/full-memory-range/libc.a(lib_a-impure.o)
                              /opt/msp430-gcc/bin/../lib/gcc/msp430-elf/8.3.1/../../../../msp430-elf/lib/large/full-memory-range/libc.a(lib_a-fflush.o) (_global_impure_ptr)
/opt/msp430-gcc/bin/../lib/gcc/msp430-elf/8.3.1/../../../../msp430-elf/lib/large/full-memory-range/libc.a(lib_a-makebuf.o)
                              /opt/msp430-gcc/bin/../lib/gcc/msp430-elf/8.3.1/../../../../msp430-elf/lib/large/full-memory-range/libc.a(lib_a-wsetup.o) (__smakebuf_r)
/opt/msp430-gcc/bin/../lib/gcc/msp430-elf/8.3.1/../../../../msp430-elf/lib/large/full-memory-range/libc.a(lib_a-memchr.o)
                              /opt/msp430-gcc/bin/../lib/gcc/msp430-elf/8.3.1/../../../../msp430-elf/lib/large/full-memory-range/libc.a(lib_a-fvwrite.o) (memchr)
/opt/msp430-gcc/bin/../lib/gcc/msp430-elf/8.3.1/../../../../msp430-elf/lib/large/full-memory-range/libc.a(lib_a-memmove.o)
                              /opt/msp430-gcc/bin/../lib/gcc/msp430-elf/8.3.1/../../../../msp430-elf/lib/large/full-memory-range/libc.a(lib_a-fvwrite.o) (memmove)
/opt/msp430-gcc/bin/../lib/gcc/msp430-elf/8.3.1/../../../../msp430-elf/lib/large/full-memory-range/libc.a(lib_a-nano-freer.o)
                              /opt/msp430-gcc/bin/../lib/gcc/msp430-elf/8.3.1/../../../../msp430-elf/lib/large/full-memory-range/libc.a(lib_a-wsetup.o) (_free_r)
/opt/msp430-gcc/bin/../lib/gcc/msp430-elf/8.3.1/../../../../msp430-elf/lib/large/full-memory-range/libc.a(lib_a-nano-mallocr.o)
                              /opt/msp430-gcc/bin/../lib/gcc/msp430-elf/8.3.1/../../../../msp430-elf/lib/large/full-memory-range/libc.a(lib_a-findfp.o) (_malloc_r)
/opt/msp430-gcc/bin/../lib/gcc/msp430-elf/8.3.1/../../../../msp430-elf/lib/large/full-memory-range/libc.a(lib_a-nano-reallocr.o)
                              /opt/msp430-gcc/bin/../lib/gcc/msp430-elf/8.3.1/../../../../msp430-elf/lib/large/full-memory-range/libc.a(lib_a-fvwrite.o) (_realloc_r)
/opt/msp430-gcc/bin/../lib/gcc/msp430-elf/8.3.1/../../../../msp430-elf/lib/large/full-memory-range/libc.a(lib_a-nano-vfprintf.o)
                              /opt/msp430-gcc/bin/../lib/gcc/msp430-elf/8.3.1/../../../../msp430-elf/lib/large/full-memory-range/libc.a(lib_a-printf.o) (_vfprintf_r)
/opt/msp430-gcc/bin/../lib/gcc/msp430-elf/8.3.1/../../../../msp430-elf/lib/large/full-memory-range/libc.a(lib_a-sbrkr.o)
                              /opt/msp430-gcc/bin/../lib/gcc/msp430-elf/8.3.1/../../../../msp430-elf/lib/large/full-memory-range/libc.a(lib_a-nano-mallocr.o) (_sbrk_r)
/opt/msp430-gcc/bin/../lib/gcc/msp430-elf/8.3.1/../../../../msp430-elf/lib/large/full-memory-range/libc.a(lib_a-stdio.o)
                              /opt/msp430-gcc/bin/../lib/gcc/msp430-elf/8.3.1/../../../../msp430-elf/lib/large/full-memory-range/libc.a(lib_a-findfp.o) (__sread)
/opt/msp430-gcc/bin/../lib/gcc/msp430-elf/8.3.1/../../../../msp430-elf/lib/large/full-memory-range/libc.a(lib_a-writer.o)
                              /opt/msp430-gcc/bin/../lib/gcc/msp430-elf/8.3.1/../../../../msp430-elf/lib/large/full-memory-range/libc.a(lib_a-stdio.o) (_write_r)
/opt/msp430-gcc/bin/../lib/gcc/msp430-elf/8.3.1/../../../../msp430-elf/lib/large/full-memory-range/libc.a(lib_a-closer.o)
                              /opt/msp430-gcc/bin/../lib/gcc/msp430-elf/8.3.1/../../../../msp430-elf/lib/large/full-memory-range/libc.a(lib_a-stdio.o) (_close_r)
/opt/msp430-gcc/bin/../lib/gcc/msp430-elf/8.3.1/../../../../msp430-elf/lib/large/full-memory-range/libc.a(lib_a-fclose.o)
                              /opt/msp430-gcc/bin/../lib/gcc/msp430-elf/8.3.1/../../../../msp430-elf/lib/large/full-memory-range/libc.a(lib_a-findfp.o) (_fclose_r)
/opt/msp430-gcc/bin/../lib/gcc/msp430-elf/8.3.1/../../../../msp430-elf/lib/large/full-memory-range/libc.a(lib_a-fputwc.o)
                              /opt/msp430-gcc/bin/../lib/gcc/msp430-elf/8.3.1/../../../../msp430-elf/lib/large/full-memory-range/libc.a(lib_a-nano-vfprintf.o) (_fputwc_r)
/opt/msp430-gcc/bin/../lib/gcc/msp430-elf/8.3.1/../../../../msp430-elf/lib/large/full-memory-range/libc.a(lib_a-fstatr.o)
                              /opt/msp430-gcc/bin/../lib/gcc/msp430-elf/8.3.1/../../../../msp430-elf/lib/large/full-memory-range/libc.a(lib_a-makebuf.o) (_fstat_r)
/opt/msp430-gcc/bin/../lib/gcc/msp430-elf/8.3.1/../../../../msp430-elf/lib/large/full-memory-range/libc.a(lib_a-isattyr.o)
                              /opt/msp430-gcc/bin/../lib/gcc/msp430-elf/8.3.1/../../../../msp430-elf/lib/large/full-memory-range/libc.a(lib_a-makebuf.o) (_isatty_r)
/opt/msp430-gcc/bin/../lib/gcc/msp430-elf/8.3.1/../../../../msp430-elf/lib/large/full-memory-range/libc.a(lib_a-locale.o)
                              /opt/msp430-gcc/bin/../lib/gcc/msp430-elf/8.3.1/../../../../msp430-elf/lib/large/full-memory-range/libc.a(lib_a-fputwc.o) (__locale_mb_cur_max)
/opt/msp430-gcc/bin/../lib/gcc/msp430-elf/8.3.1/../../../../msp430-elf/lib/large/full-memory-range/libc.a(lib_a-lseekr.o)
                              /opt/msp430-gcc/bin/../lib/gcc/msp430-elf/8.3.1/../../../../msp430-elf/lib/large/full-memory-range/libc.a(lib_a-stdio.o) (_lseek_r)
/opt/msp430-gcc/bin/../lib/gcc/msp430-elf/8.3.1/../../../../msp430-elf/lib/large/full-memory-range/libc.a(lib_a-nano-msizer.o)
                              /opt/msp430-gcc/bin/../lib/gcc/msp430-elf/8.3.1/../../../../msp430-elf/lib/large/full-memory-range/libc.a(lib_a-nano-reallocr.o) (_malloc_usable_size_r)
/opt/msp430-gcc/bin/../lib/gcc/msp430-elf/8.3.1/../../../../msp430-elf/lib/large/full-memory-range/libc.a(lib_a-nano-vfprintf_i.o)
                              /opt/msp430-gcc/bin/../lib/gcc/msp430-elf/8.3.1/../../../../msp430-elf/lib/large/full-memory-range/libc.a(lib_a-nano-vfprintf.o) (_printf_i)
/opt/msp430-gcc/bin/../lib/gcc/msp430-elf/8.3.1/../../../../msp430-elf/lib/large/full-memory-range/libc.a(lib_a-readr.o)
                              /opt/msp430-gcc/bin/../lib/gcc/msp430-elf/8.3.1/../../../../msp430-elf/lib/large/full-memory-range/libc.a(lib_a-stdio.o) (_read_r)
/opt/msp430-gcc/bin/../lib/gcc/msp430-elf/8.3.1/../../../../msp430-elf/lib/large/full-memory-range/libc.a(lib_a-reent.o)
                              /opt/msp430-gcc/bin/../lib/gcc/msp430-elf/8.3.1/../../../../msp430-elf/lib/large/full-memory-range/libc.a(lib_a-sbrkr.o) (errno)
/opt/msp430-gcc/bin/../lib/gcc/msp430-elf/8.3.1/../../../../msp430-elf/lib/large/full-memory-range/libc.a(lib_a-strcmp.o)
                              /opt/msp430-gcc/bin/../lib/gcc/msp430-elf/8.3.1/../../../../msp430-elf/lib/large/full-memory-range/libc.a(lib_a-locale.o) (strcmp)
/opt/msp430-gcc/bin/../lib/gcc/msp430-elf/8.3.1/../../../../msp430-elf/lib/large/full-memory-range/libc.a(lib_a-wcrtomb.o)
                              /opt/msp430-gcc/bin/../lib/gcc/msp430-elf/8.3.1/../../../../msp430-elf/lib/large/full-memory-range/libc.a(lib_a-fputwc.o) (_wcrtomb_r)
/opt/msp430-gcc/bin/../lib/gcc/msp430-elf/8.3.1/../../../../msp430-elf/lib/large/full-memory-range/libc.a(lib_a-wctomb_r.o)
                              /opt/msp430-gcc/bin/../lib/gcc/msp430-elf/8.3.1/../../../../msp430-elf/lib/large/full-memory-range/libc.a(lib_a-wcrtomb.o) (__wctomb)
/opt/msp430-gcc/bin/../lib/gcc/msp430-elf/8.3.1/large/full-memory-range/libgcc.a(_muldi3.o)
                              /opt/msp430-gcc/bin/../lib/gcc/msp430-elf/8.3.1/large/full-memory-range/libmul_f5.a(lib2hw_mul_f5.o) (__mspabi_mpyll)
/opt/msp430-gcc/bin/../lib/gcc/msp430-elf/8.3.1/large/full-memory-range/libgcc.a(lib2divHI.o)
                              /opt/msp430-gcc/bin/../lib/gcc/msp430-elf/8.3.1/../../../../msp430-elf/lib/large/full-memory-range/libc.a(lib_a-fvwrite.o) (__mspabi_divi)
/opt/msp430-gcc/bin/../lib/gcc/msp430-elf/8.3.1/../../../../msp430-elf/lib/large/full-memory-range/libcrt.a(crt_bss.o)
                              libmsp430_obc.a(msp430_eusci_a_serial_minimal.o) (__crt0_init_bss)
/opt/msp430-gcc/bin/../lib/gcc/msp430-elf/8.3.1/../../../../msp430-elf/lib/large/full-memory-range/libcrt.a(crt_high_bss.o)
                              main.o (__crt0_init_highbss)
/opt/msp430-gcc/bin/../lib/gcc/msp430-elf/8.3.1/../../../../msp430-elf/lib/large/full-memory-range/libcrt.a(crt_movedata.o)
                              /opt/msp430-gcc/bin/../lib/gcc/msp430-elf/8.3.1/../../../../msp430-elf/lib/large/full-memory-range/libc.a(lib_a-impure.o) (__crt0_movedata)
/opt/msp430-gcc/bin/../lib/gcc/msp430-elf/8.3.1/../../../../msp430-elf/lib/large/full-memory-range/libcrt.a(crt_move_highdata.o)
                              main.o (__crt0_move_highdata)
/opt/msp430-gcc/bin/../lib/gcc/msp430-elf/8.3.1/../../../../msp430-elf/lib/large/full-memory-range/libcrt.a(crt_main.o)
                              /opt/msp430-gcc/bin/../lib/gcc/msp430-elf/8.3.1/../../../../msp430-elf/lib/large/full-memory-range/crt0.o (__crt0_call_main)
/opt/msp430-gcc/bin/../lib/gcc/msp430-elf/8.3.1/../../../../msp430-elf/lib/large/full-memory-range/libnosys.a(ciosyscalls.o)
                              /opt/msp430-gcc/bin/../lib/gcc/msp430-elf/8.3.1/../../../../msp430-elf/lib/large/full-memory-range/libc.a(lib_a-isattyr.o) (isatty)
/opt/msp430-gcc/bin/../lib/gcc/msp430-elf/8.3.1/../../../../msp430-elf/lib/large/full-memory-range/libnosys.a(write.o)
                              /opt/msp430-gcc/bin/../lib/gcc/msp430-elf/8.3.1/../../../../msp430-elf/lib/large/full-memory-range/libc.a(lib_a-writer.o) (write)
/opt/msp430-gcc/bin/../lib/gcc/msp430-elf/8.3.1/../../../../msp430-elf/lib/large/full-memory-range/libnosys.a(sbrk.o)
                              /opt/msp430-gcc/bin/../lib/gcc/msp430-elf/8.3.1/../../../../msp430-elf/lib/large/full-memory-range/libc.a(lib_a-sbrkr.o) (sbrk)
/opt/msp430-gcc/bin/../lib/gcc/msp430-elf/8.3.1/../../../../msp430-elf/lib/large/full-memory-range/libnosys.a(cio.o)
                              /opt/msp430-gcc/bin/../lib/gcc/msp430-elf/8.3.1/../../../../msp430-elf/lib/large/full-memory-range/libnosys.a(write.o) (__CIOBUF__)
/opt/msp430-gcc/bin/../lib/gcc/msp430-elf/8.3.1/../../../../msp430-elf/lib/large/full-memory-range/libc.a(lib_a-abort.o)
                              /opt/msp430-gcc/bin/../lib/gcc/msp430-elf/8.3.1/../../../../msp430-elf/lib/large/full-memory-range/libnosys.a(sbrk.o) (abort)
/opt/msp430-gcc/bin/../lib/gcc/msp430-elf/8.3.1/../../../../msp430-elf/lib/large/full-memory-range/libc.a(lib_a-errno.o)
                              /opt/msp430-gcc/bin/../lib/gcc/msp430-elf/8.3.1/../../../../msp430-elf/lib/large/full-memory-range/libnosys.a(ciosyscalls.o) (__errno)
/opt/msp430-gcc/bin/../lib/gcc/msp430-elf/8.3.1/../../../../msp430-elf/lib/large/full-memory-range/libc.a(lib_a-signal.o)
                              /opt/msp430-gcc/bin/../lib/gcc/msp430-elf/8.3.1/../../../../msp430-elf/lib/large/full-memory-range/libc.a(lib_a-abort.o) (raise)
/opt/msp430-gcc/bin/../lib/gcc/msp430-elf/8.3.1/../../../../msp430-elf/lib/large/full-memory-range/libc.a(lib_a-signalr.o)
                              /opt/msp430-gcc/bin/../lib/gcc/msp430-elf/8.3.1/../../../../msp430-elf/lib/large/full-memory-range/libc.a(lib_a-signal.o) (_kill_r)
/opt/msp430-gcc/bin/../lib/gcc/msp430-elf/8.3.1/../../../../msp430-elf/lib/large/full-memory-range/libnosys.a(exit.o)
                              /opt/msp430-gcc/bin/../lib/gcc/msp430-elf/8.3.1/../../../../msp430-elf/lib/large/full-memory-range/libc.a(lib_a-abort.o) (_exit)

Allocating common symbols
Common symbol       size              file

errno               0x2               /opt/msp430-gcc/bin/../lib/gcc/msp430-elf/8.3.1/../../../../msp430-elf/lib/large/full-memory-range/libc.a(lib_a-reent.o)

Discarded input sections

 .either.text   0x0000000000000000        0x0 /opt/msp430-gcc/bin/../lib/gcc/msp430-elf/8.3.1/../../../../msp430-elf/lib/large/full-memory-range/crt0.o
 .upper.data    0x0000000000000000        0x0 /opt/msp430-gcc/bin/../lib/gcc/msp430-elf/8.3.1/../../../../msp430-elf/lib/large/full-memory-range/crt0.o
 .upper.bss     0x0000000000000000        0x0 /opt/msp430-gcc/bin/../lib/gcc/msp430-elf/8.3.1/../../../../msp430-elf/lib/large/full-memory-range/crt0.o
 .either.text   0x0000000000000000        0x0 /opt/msp430-gcc/bin/../lib/gcc/msp430-elf/8.3.1/large/full-memory-range/crtbegin_no_eh.o
 .upper.data    0x0000000000000000        0x0 /opt/msp430-gcc/bin/../lib/gcc/msp430-elf/8.3.1/large/full-memory-range/crtbegin_no_eh.o
 .upper.bss     0x0000000000000000        0x0 /opt/msp430-gcc/bin/../lib/gcc/msp430-elf/8.3.1/large/full-memory-range/crtbegin_no_eh.o
 .either.text   0x0000000000000000        0x0 main.o
 .upper.data    0x0000000000000000        0x0 main.o
 .upper.bss     0x0000000000000000        0x0 main.o
 .either.text   0x0000000000000000        0x0 libmsp430_obc.a(loc_provider_vm_if.o)
 .upper.data    0x0000000000000000        0x0 libmsp430_obc.a(loc_provider_vm_if.o)
 .upper.bss     0x0000000000000000        0x0 libmsp430_obc.a(loc_provider_vm_if.o)
 .either.text   0x0000000000000000        0x0 libmsp430_obc.a(msp430_eusci_a_serial_minimal.o)
 .upper.data    0x0000000000000000        0x0 libmsp430_obc.a(msp430_eusci_a_serial_minimal.o)
 .either.text   0x0000000000000000        0x0 libmsp430_obc.a(port.o)
 .upper.data    0x0000000000000000        0x0 libmsp430_obc.a(port.o)
 .upper.bss     0x0000000000000000        0x0 libmsp430_obc.a(port.o)
 .either.text.vPortEndScheduler
                0x0000000000000000        0x2 libmsp430_obc.a(port.o)
 .debug_line.either.text.vPortEndScheduler
                0x0000000000000000       0x19 libmsp430_obc.a(port.o)
 .either.text   0x0000000000000000        0x0 libmsp430_obc.a(queue.o)
 .upper.data    0x0000000000000000        0x0 libmsp430_obc.a(queue.o)
 .upper.bss     0x0000000000000000        0x0 libmsp430_obc.a(queue.o)
 .either.text.xQueuePeek
                0x0000000000000000      0x1d6 libmsp430_obc.a(queue.o)
 .either.text.xQueueReceiveFromISR
                0x0000000000000000       0x84 libmsp430_obc.a(queue.o)
 .either.text.xQueuePeekFromISR
                0x0000000000000000       0x60 libmsp430_obc.a(queue.o)
 .either.text.uxQueueMessagesWaiting
                0x0000000000000000       0x42 libmsp430_obc.a(queue.o)
 .either.text.uxQueueSpacesAvailable
                0x0000000000000000       0x48 libmsp430_obc.a(queue.o)
 .either.text.uxQueueMessagesWaitingFromISR
                0x0000000000000000       0x16 libmsp430_obc.a(queue.o)
 .either.text.vQueueDelete
                0x0000000000000000       0x12 libmsp430_obc.a(queue.o)
 .either.text.xQueueIsQueueEmptyFromISR
                0x0000000000000000       0x1e libmsp430_obc.a(queue.o)
 .either.text.xQueueIsQueueFullFromISR
                0x0000000000000000       0x22 libmsp430_obc.a(queue.o)
 .debug_line.either.text.xQueuePeek
                0x0000000000000000      0x4b5 libmsp430_obc.a(queue.o)
 .debug_line.either.text.xQueueReceiveFromISR
                0x0000000000000000      0x1da libmsp430_obc.a(queue.o)
 .debug_line.either.text.xQueuePeekFromISR
                0x0000000000000000      0x1aa libmsp430_obc.a(queue.o)
 .debug_line.either.text.uxQueueMessagesWaiting
                0x0000000000000000      0x122 libmsp430_obc.a(queue.o)
 .debug_line.either.text.uxQueueSpacesAvailable
                0x0000000000000000      0x134 libmsp430_obc.a(queue.o)
 .debug_line.either.text.uxQueueMessagesWaitingFromISR
                0x0000000000000000       0x88 libmsp430_obc.a(queue.o)
 .debug_line.either.text.vQueueDelete
                0x0000000000000000       0x5c libmsp430_obc.a(queue.o)
 .debug_line.either.text.xQueueIsQueueEmptyFromISR
                0x0000000000000000       0xa4 libmsp430_obc.a(queue.o)
 .debug_line.either.text.xQueueIsQueueFullFromISR
                0x0000000000000000       0xa4 libmsp430_obc.a(queue.o)
 .either.text   0x0000000000000000        0x0 libmsp430_obc.a(state_handler_entrypoint_vm_if.o)
 .upper.data    0x0000000000000000        0x0 libmsp430_obc.a(state_handler_entrypoint_vm_if.o)
 .upper.bss     0x0000000000000000        0x0 libmsp430_obc.a(state_handler_entrypoint_vm_if.o)
 .either.text   0x0000000000000000        0x0 libmsp430_obc.a(tasks.o)
 .upper.data    0x0000000000000000        0x0 libmsp430_obc.a(tasks.o)
 .either.text.vTaskEndScheduler
                0x0000000000000000       0x12 libmsp430_obc.a(tasks.o)
 .either.text.xTaskGetTickCountFromISR
                0x0000000000000000        0xe libmsp430_obc.a(tasks.o)
 .either.text.uxTaskGetNumberOfTasks
                0x0000000000000000        0x8 libmsp430_obc.a(tasks.o)
 .either.text.pcTaskGetName
                0x0000000000000000       0x20 libmsp430_obc.a(tasks.o)
 .either.text.vTaskDelay
                0x0000000000000000       0x4c libmsp430_obc.a(tasks.o)
 .either.text.vTaskPlaceOnUnorderedEventList
                0x0000000000000000       0x6c libmsp430_obc.a(tasks.o)
 .either.text.vTaskRemoveFromUnorderedEventList
                0x0000000000000000       0xa0 libmsp430_obc.a(tasks.o)
 .either.text.vTaskSetTimeOutState
                0x0000000000000000       0x5a libmsp430_obc.a(tasks.o)
 .either.text.xTaskGetCurrentTaskHandle
                0x0000000000000000        0x6 libmsp430_obc.a(tasks.o)
 .either.text.uxTaskResetEventItemValue
                0x0000000000000000       0x32 libmsp430_obc.a(tasks.o)
 .debug_line.either.text.vTaskEndScheduler
                0x0000000000000000       0x48 libmsp430_obc.a(tasks.o)
 .debug_line.either.text.xTaskGetTickCountFromISR
                0x0000000000000000       0x58 libmsp430_obc.a(tasks.o)
 .debug_line.either.text.uxTaskGetNumberOfTasks
                0x0000000000000000       0x24 libmsp430_obc.a(tasks.o)
 .debug_line.either.text.pcTaskGetName
                0x0000000000000000       0x98 libmsp430_obc.a(tasks.o)
 .debug_line.either.text.vTaskDelay
                0x0000000000000000       0xe6 libmsp430_obc.a(tasks.o)
 .debug_line.either.text.vTaskPlaceOnUnorderedEventList
                0x0000000000000000       0xd0 libmsp430_obc.a(tasks.o)
 .debug_line.either.text.vTaskRemoveFromUnorderedEventList
                0x0000000000000000      0x180 libmsp430_obc.a(tasks.o)
 .debug_line.either.text.vTaskSetTimeOutState
                0x0000000000000000      0x12a libmsp430_obc.a(tasks.o)
 .debug_line.either.text.xTaskGetCurrentTaskHandle
                0x0000000000000000       0x30 libmsp430_obc.a(tasks.o)
 .debug_line.either.text.uxTaskResetEventItemValue
                0x0000000000000000       0x4a libmsp430_obc.a(tasks.o)
 .either.text   0x0000000000000000        0x0 libmsp430_obc.a(tc_provider_vm_if.o)
 .upper.data    0x0000000000000000        0x0 libmsp430_obc.a(tc_provider_vm_if.o)
 .upper.bss     0x0000000000000000        0x0 libmsp430_obc.a(tc_provider_vm_if.o)
 .either.text   0x0000000000000000        0x0 libmsp430_obc.a(tc_validation_vm_if.o)
 .upper.data    0x0000000000000000        0x0 libmsp430_obc.a(tc_validation_vm_if.o)
 .upper.bss     0x0000000000000000        0x0 libmsp430_obc.a(tc_validation_vm_if.o)
 .either.text.tc_validation_validate_mc_vs_tm
                0x0000000000000000        0x6 libmsp430_obc.a(tc_validation_vm_if.o)
 .debug_line.either.text.tc_validation_validate_mc_vs_tm
                0x0000000000000000       0x29 libmsp430_obc.a(tc_validation_vm_if.o)
 .either.text   0x0000000000000000        0x0 libmsp430_obc.a(thread_state_handler_entrypoint_poll_aoi.o)
 .upper.data    0x0000000000000000        0x0 libmsp430_obc.a(thread_state_handler_entrypoint_poll_aoi.o)
 .upper.bss     0x0000000000000000        0x0 libmsp430_obc.a(thread_state_handler_entrypoint_poll_aoi.o)
 .either.text   0x0000000000000000        0x0 libmsp430_obc.a(thread_state_handler_entrypoint_poll_mcp.o)
 .upper.data    0x0000000000000000        0x0 libmsp430_obc.a(thread_state_handler_entrypoint_poll_mcp.o)
 .upper.bss     0x0000000000000000        0x0 libmsp430_obc.a(thread_state_handler_entrypoint_poll_mcp.o)
 .either.text   0x0000000000000000        0x0 libmsp430_obc.a(thread_state_handler_entrypoint_toggle_pwr.o)
 .upper.data    0x0000000000000000        0x0 libmsp430_obc.a(thread_state_handler_entrypoint_toggle_pwr.o)
 .upper.bss     0x0000000000000000        0x0 libmsp430_obc.a(thread_state_handler_entrypoint_toggle_pwr.o)
 .either.text   0x0000000000000000        0x0 libmsp430_obc.a(thread_state_handler_entrypoint_trig_aoi.o)
 .upper.data    0x0000000000000000        0x0 libmsp430_obc.a(thread_state_handler_entrypoint_trig_aoi.o)
 .upper.bss     0x0000000000000000        0x0 libmsp430_obc.a(thread_state_handler_entrypoint_trig_aoi.o)
 .either.text   0x0000000000000000        0x0 libmsp430_obc.a(thread_state_handler_entrypoint_trig_mcp.o)
 .upper.data    0x0000000000000000        0x0 libmsp430_obc.a(thread_state_handler_entrypoint_trig_mcp.o)
 .upper.bss     0x0000000000000000        0x0 libmsp430_obc.a(thread_state_handler_entrypoint_trig_mcp.o)
 .either.text   0x0000000000000000        0x0 libmsp430_obc.a(thread_state_handler_entrypoint_trig_pwr.o)
 .upper.data    0x0000000000000000        0x0 libmsp430_obc.a(thread_state_handler_entrypoint_trig_pwr.o)
 .upper.bss     0x0000000000000000        0x0 libmsp430_obc.a(thread_state_handler_entrypoint_trig_pwr.o)
 .either.text   0x0000000000000000        0x0 libmsp430_obc.a(timers.o)
 .upper.data    0x0000000000000000        0x0 libmsp430_obc.a(timers.o)
 .either.text.xTimerGetTimerDaemonTaskHandle
                0x0000000000000000       0x16 libmsp430_obc.a(timers.o)
 .either.text.xTimerGetPeriod
                0x0000000000000000       0x1a libmsp430_obc.a(timers.o)
 .either.text.vTimerSetReloadMode
                0x0000000000000000       0x4e libmsp430_obc.a(timers.o)
 .either.text.xTimerGetExpiryTime
                0x0000000000000000       0x1a libmsp430_obc.a(timers.o)
 .either.text.pcTimerGetName
                0x0000000000000000       0x14 libmsp430_obc.a(timers.o)
 .either.text.xTimerIsTimerActive
                0x0000000000000000       0x44 libmsp430_obc.a(timers.o)
 .either.text.pvTimerGetTimerID
                0x0000000000000000       0x42 libmsp430_obc.a(timers.o)
 .either.text.vTimerSetTimerID
                0x0000000000000000       0x42 libmsp430_obc.a(timers.o)
 .debug_line.either.text.xTimerGetTimerDaemonTaskHandle
                0x0000000000000000       0x56 libmsp430_obc.a(timers.o)
 .debug_line.either.text.xTimerGetPeriod
                0x0000000000000000       0x78 libmsp430_obc.a(timers.o)
 .debug_line.either.text.vTimerSetReloadMode
                0x0000000000000000      0x132 libmsp430_obc.a(timers.o)
 .debug_line.either.text.xTimerGetExpiryTime
                0x0000000000000000       0x88 libmsp430_obc.a(timers.o)
 .debug_line.either.text.pcTimerGetName
                0x0000000000000000       0x78 libmsp430_obc.a(timers.o)
 .debug_line.either.text.xTimerIsTimerActive
                0x0000000000000000      0x128 libmsp430_obc.a(timers.o)
 .debug_line.either.text.pvTimerGetTimerID
                0x0000000000000000      0x128 libmsp430_obc.a(timers.o)
 .debug_line.either.text.vTimerSetTimerID
                0x0000000000000000      0x116 libmsp430_obc.a(timers.o)
 .either.text   0x0000000000000000        0x0 libmsp430_obc.a(tm_collection_vm_if.o)
 .upper.data    0x0000000000000000        0x0 libmsp430_obc.a(tm_collection_vm_if.o)
 .upper.bss     0x0000000000000000        0x0 libmsp430_obc.a(tm_collection_vm_if.o)
 .either.text.tm_collection_collect_tm
                0x0000000000000000        0x6 libmsp430_obc.a(tm_collection_vm_if.o)
 .debug_line.either.text.tm_collection_collect_tm
                0x0000000000000000       0x29 libmsp430_obc.a(tm_collection_vm_if.o)
 .either.text   0x0000000000000000        0x0 libmsp430_obc.a(tm_provider_vm_if.o)
 .upper.data    0x0000000000000000        0x0 libmsp430_obc.a(tm_provider_vm_if.o)
 .upper.bss     0x0000000000000000        0x0 libmsp430_obc.a(tm_provider_vm_if.o)
 .either.text.tm_provider_request_tm
                0x0000000000000000        0xc libmsp430_obc.a(tm_provider_vm_if.o)
 .debug_line.either.text.tm_provider_request_tm
                0x0000000000000000       0x29 libmsp430_obc.a(tm_provider_vm_if.o)
 .either.text   0x0000000000000000        0x0 libmsp430_obc.a(transport.o)
 .upper.data    0x0000000000000000        0x0 libmsp430_obc.a(transport.o)
 .upper.bss     0x0000000000000000        0x0 libmsp430_obc.a(transport.o)
 .either.text.deliver_to_state_handler_entrypoint_poll_aoi
                0x0000000000000000       0x1c libmsp430_obc.a(transport.o)
 .either.text.deliver_to_state_handler_entrypoint_poll_mcp
                0x0000000000000000       0x1c libmsp430_obc.a(transport.o)
 .either.text.deliver_to_state_handler_entrypoint_toggle_pwr
                0x0000000000000000       0x1c libmsp430_obc.a(transport.o)
 .either.text.deliver_to_state_handler_entrypoint_trig_aoi
                0x0000000000000000       0x1c libmsp430_obc.a(transport.o)
 .either.text.deliver_to_state_handler_entrypoint_trig_mcp
                0x0000000000000000       0x1c libmsp430_obc.a(transport.o)
 .either.text.deliver_to_state_handler_entrypoint_trig_pwr
                0x0000000000000000       0x1c libmsp430_obc.a(transport.o)
 .debug_line.either.text.deliver_to_state_handler_entrypoint_poll_aoi
                0x0000000000000000       0x2c libmsp430_obc.a(transport.o)
 .debug_line.either.text.deliver_to_state_handler_entrypoint_poll_mcp
                0x0000000000000000       0x2c libmsp430_obc.a(transport.o)
 .debug_line.either.text.deliver_to_state_handler_entrypoint_toggle_pwr
                0x0000000000000000       0x2c libmsp430_obc.a(transport.o)
 .debug_line.either.text.deliver_to_state_handler_entrypoint_trig_aoi
                0x0000000000000000       0x2c libmsp430_obc.a(transport.o)
 .debug_line.either.text.deliver_to_state_handler_entrypoint_trig_mcp
                0x0000000000000000       0x2c libmsp430_obc.a(transport.o)
 .debug_line.either.text.deliver_to_state_handler_entrypoint_trig_pwr
                0x0000000000000000       0x2c libmsp430_obc.a(transport.o)
 .either.text   0x0000000000000000        0x0 libmsp430_obc.a(State_Handler_Entrypoint.o)
 .upper.data    0x0000000000000000        0x0 libmsp430_obc.a(State_Handler_Entrypoint.o)
 .upper.bss     0x0000000000000000        0x0 libmsp430_obc.a(State_Handler_Entrypoint.o)
 .either.text.runTransitionState_Handler_Entrypoint
                0x0000000000000000        0x6 libmsp430_obc.a(State_Handler_Entrypoint.o)
 .either.text.state_handler_entrypoint_state
                0x0000000000000000        0x6 libmsp430_obc.a(State_Handler_Entrypoint.o)
 .debug_line.either.text.runTransitionState_Handler_Entrypoint
                0x0000000000000000       0x2b libmsp430_obc.a(State_Handler_Entrypoint.o)
 .debug_line.either.text.state_handler_entrypoint_state
                0x0000000000000000       0x24 libmsp430_obc.a(State_Handler_Entrypoint.o)
 .either.text   0x0000000000000000        0x0 libmsp430_obc.a(drivers_config.o)
 .upper.data    0x0000000000000000        0x0 libmsp430_obc.a(drivers_config.o)
 .upper.bss     0x0000000000000000        0x0 libmsp430_obc.a(drivers_config.o)
 .either.text   0x0000000000000000        0x0 libmsp430_obc.a(list.o)
 .upper.data    0x0000000000000000        0x0 libmsp430_obc.a(list.o)
 .upper.bss     0x0000000000000000        0x0 libmsp430_obc.a(list.o)
 .either.text   0x0000000000000000        0x0 libmsp430_obc.a(loc_provider.o)
 .upper.data    0x0000000000000000        0x0 libmsp430_obc.a(loc_provider.o)
 .either.text   0x0000000000000000        0x0 libmsp430_obc.a(msp430_obc_interface.o)
 .upper.data    0x0000000000000000        0x0 libmsp430_obc.a(msp430_obc_interface.o)
 .upper.bss     0x0000000000000000        0x0 libmsp430_obc.a(msp430_obc_interface.o)
 .either.text.vm_state_handler_entrypoint_collect_tm
                0x0000000000000000        0x6 libmsp430_obc.a(msp430_obc_interface.o)
 .either.text.vm_state_handler_entrypoint_validate_mc_vs_tm
                0x0000000000000000        0x6 libmsp430_obc.a(msp430_obc_interface.o)
 .either.text.pro_state_handler_entrypoint_poll_aoi
                0x0000000000000000       0x3a libmsp430_obc.a(msp430_obc_interface.o)
 .either.text.pro_state_handler_entrypoint_poll_mcp
                0x0000000000000000       0x3a libmsp430_obc.a(msp430_obc_interface.o)
 .either.text.pro_state_handler_entrypoint_toggle_pwr
                0x0000000000000000       0x3a libmsp430_obc.a(msp430_obc_interface.o)
 .either.text.pro_state_handler_entrypoint_trig_aoi
                0x0000000000000000       0x3a libmsp430_obc.a(msp430_obc_interface.o)
 .either.text.pro_state_handler_entrypoint_trig_mcp
                0x0000000000000000       0x3a libmsp430_obc.a(msp430_obc_interface.o)
 .either.text.pro_state_handler_entrypoint_trig_pwr
                0x0000000000000000       0x3a libmsp430_obc.a(msp430_obc_interface.o)
 .either.text.vm_tm_collection_request_tm
                0x0000000000000000       0x1e libmsp430_obc.a(msp430_obc_interface.o)
 .debug_line.either.text.vm_state_handler_entrypoint_collect_tm
                0x0000000000000000       0x23 libmsp430_obc.a(msp430_obc_interface.o)
 .debug_line.either.text.vm_state_handler_entrypoint_validate_mc_vs_tm
                0x0000000000000000       0x24 libmsp430_obc.a(msp430_obc_interface.o)
 .debug_line.either.text.pro_state_handler_entrypoint_poll_aoi
                0x0000000000000000       0x78 libmsp430_obc.a(msp430_obc_interface.o)
 .debug_line.either.text.pro_state_handler_entrypoint_poll_mcp
                0x0000000000000000       0x78 libmsp430_obc.a(msp430_obc_interface.o)
 .debug_line.either.text.pro_state_handler_entrypoint_toggle_pwr
                0x0000000000000000       0x78 libmsp430_obc.a(msp430_obc_interface.o)
 .debug_line.either.text.pro_state_handler_entrypoint_trig_aoi
                0x0000000000000000       0x78 libmsp430_obc.a(msp430_obc_interface.o)
 .debug_line.either.text.pro_state_handler_entrypoint_trig_mcp
                0x0000000000000000       0x78 libmsp430_obc.a(msp430_obc_interface.o)
 .debug_line.either.text.pro_state_handler_entrypoint_trig_pwr
                0x0000000000000000       0x78 libmsp430_obc.a(msp430_obc_interface.o)
 .debug_line.either.text.vm_tm_collection_request_tm
                0x0000000000000000       0x24 libmsp430_obc.a(msp430_obc_interface.o)
 .either.text   0x0000000000000000        0x0 libmsp430_obc.a(state_handler_entrypoint_invoke_ri.o)
 .upper.data    0x0000000000000000        0x0 libmsp430_obc.a(state_handler_entrypoint_invoke_ri.o)
 .upper.bss     0x0000000000000000        0x0 libmsp430_obc.a(state_handler_entrypoint_invoke_ri.o)
 .either.text.state_handler_entrypoint_RI_collect_tm
                0x0000000000000000        0x6 libmsp430_obc.a(state_handler_entrypoint_invoke_ri.o)
 .either.text.state_handler_entrypoint_RI_validate_mc_vs_tm
                0x0000000000000000        0x6 libmsp430_obc.a(state_handler_entrypoint_invoke_ri.o)
 .debug_line.either.text.state_handler_entrypoint_RI_collect_tm
                0x0000000000000000       0x29 libmsp430_obc.a(state_handler_entrypoint_invoke_ri.o)
 .debug_line.either.text.state_handler_entrypoint_RI_validate_mc_vs_tm
                0x0000000000000000       0x2a libmsp430_obc.a(state_handler_entrypoint_invoke_ri.o)
 .either.text   0x0000000000000000        0x0 libmsp430_obc.a(tc_provider.o)
 .upper.data    0x0000000000000000        0x0 libmsp430_obc.a(tc_provider.o)
 .either.text   0x0000000000000000        0x0 libmsp430_obc.a(tc_validation.o)
 .upper.data    0x0000000000000000        0x0 libmsp430_obc.a(tc_validation.o)
 .upper.bss     0x0000000000000000        0x0 libmsp430_obc.a(tc_validation.o)
 .either.text.tc_validation_PI_validate_mc_vs_tm
                0x0000000000000000        0x2 libmsp430_obc.a(tc_validation.o)
 .upper.bss     0x0000000000000000        0x1 libmsp430_obc.a(tc_validation.o)
 .either.text   0x0000000000000000        0x0 libmsp430_obc.a(tm_collection.o)
 .upper.data    0x0000000000000000        0x0 libmsp430_obc.a(tm_collection.o)
 .upper.bss     0x0000000000000000        0x0 libmsp430_obc.a(tm_collection.o)
 .either.text.tm_collection_PI_collect_tm
                0x0000000000000000        0x2 libmsp430_obc.a(tm_collection.o)
 .either.text   0x0000000000000000        0x0 libmsp430_obc.a(tm_provider.o)
 .upper.data    0x0000000000000000        0x0 libmsp430_obc.a(tm_provider.o)
 .upper.bss     0x0000000000000000        0x0 libmsp430_obc.a(tm_provider.o)
 .either.text.tm_provider_PI_request_tm
                0x0000000000000000        0x2 libmsp430_obc.a(tm_provider.o)
 .debug_line.either.text.tm_provider_PI_request_tm
                0x0000000000000000       0x18 libmsp430_obc.a(tm_provider.o)
 .either.text   0x0000000000000000        0x4 /opt/msp430-gcc/bin/../lib/gcc/msp430-elf/8.3.1/large/full-memory-range/libgcc.a(lib2divSI.o)
 .upper.data    0x0000000000000000        0x0 /opt/msp430-gcc/bin/../lib/gcc/msp430-elf/8.3.1/large/full-memory-range/libgcc.a(lib2divSI.o)
 .upper.bss     0x0000000000000000        0x0 /opt/msp430-gcc/bin/../lib/gcc/msp430-elf/8.3.1/large/full-memory-range/libgcc.a(lib2divSI.o)
 .either.text.__divsi3
                0x0000000000000000       0x50 /opt/msp430-gcc/bin/../lib/gcc/msp430-elf/8.3.1/large/full-memory-range/libgcc.a(lib2divSI.o)
 .either.text.__modsi3
                0x0000000000000000       0x4e /opt/msp430-gcc/bin/../lib/gcc/msp430-elf/8.3.1/large/full-memory-range/libgcc.a(lib2divSI.o)
 .either.text   0x0000000000000000        0x0 /opt/msp430-gcc/bin/../lib/gcc/msp430-elf/8.3.1/large/full-memory-range/libgcc.a(slli.o)
 .upper.data    0x0000000000000000        0x0 /opt/msp430-gcc/bin/../lib/gcc/msp430-elf/8.3.1/large/full-memory-range/libgcc.a(slli.o)
 .upper.bss     0x0000000000000000        0x0 /opt/msp430-gcc/bin/../lib/gcc/msp430-elf/8.3.1/large/full-memory-range/libgcc.a(slli.o)
 .either.text.__mspabi_slli_n
                0x0000000000000000       0x20 /opt/msp430-gcc/bin/../lib/gcc/msp430-elf/8.3.1/large/full-memory-range/libgcc.a(slli.o)
 .either.text.__mspabi_slll_n
                0x0000000000000000       0x3e /opt/msp430-gcc/bin/../lib/gcc/msp430-elf/8.3.1/large/full-memory-range/libgcc.a(slli.o)
 .either.text.__mspabi_sllll
                0x0000000000000000       0x1e /opt/msp430-gcc/bin/../lib/gcc/msp430-elf/8.3.1/large/full-memory-range/libgcc.a(slli.o)
 .either.text   0x0000000000000000        0x0 /opt/msp430-gcc/bin/../lib/gcc/msp430-elf/8.3.1/large/full-memory-range/libgcc.a(_udivdi3.o)
 .upper.data    0x0000000000000000        0x0 /opt/msp430-gcc/bin/../lib/gcc/msp430-elf/8.3.1/large/full-memory-range/libgcc.a(_udivdi3.o)
 .upper.bss     0x0000000000000000        0x0 /opt/msp430-gcc/bin/../lib/gcc/msp430-elf/8.3.1/large/full-memory-range/libgcc.a(_udivdi3.o)
 .either.text.__udivdi3
                0x0000000000000000      0x40e /opt/msp430-gcc/bin/../lib/gcc/msp430-elf/8.3.1/large/full-memory-range/libgcc.a(_udivdi3.o)
 .either.text   0x0000000000000000        0x0 /opt/msp430-gcc/bin/../lib/gcc/msp430-elf/8.3.1/large/full-memory-range/libgcc.a(srli.o)
 .upper.data    0x0000000000000000        0x0 /opt/msp430-gcc/bin/../lib/gcc/msp430-elf/8.3.1/large/full-memory-range/libgcc.a(srli.o)
 .upper.bss     0x0000000000000000        0x0 /opt/msp430-gcc/bin/../lib/gcc/msp430-elf/8.3.1/large/full-memory-range/libgcc.a(srli.o)
 .either.text.__mspabi_srli_n
                0x0000000000000000       0x3e /opt/msp430-gcc/bin/../lib/gcc/msp430-elf/8.3.1/large/full-memory-range/libgcc.a(srli.o)
 .either.text.__mspabi_srli
                0x0000000000000000        0xc /opt/msp430-gcc/bin/../lib/gcc/msp430-elf/8.3.1/large/full-memory-range/libgcc.a(srli.o)
 .either.text.__mspabi_srll_n
                0x0000000000000000       0x5c /opt/msp430-gcc/bin/../lib/gcc/msp430-elf/8.3.1/large/full-memory-range/libgcc.a(srli.o)
 .either.text.__mspabi_srll
                0x0000000000000000        0xe /opt/msp430-gcc/bin/../lib/gcc/msp430-elf/8.3.1/large/full-memory-range/libgcc.a(srli.o)
 .either.text.__mspabi_srlll
                0x0000000000000000       0x20 /opt/msp430-gcc/bin/../lib/gcc/msp430-elf/8.3.1/large/full-memory-range/libgcc.a(srli.o)
 .either.text   0x0000000000000000        0x0 /opt/msp430-gcc/bin/../lib/gcc/msp430-elf/8.3.1/large/full-memory-range/libgcc.a(_clzdi2.o)
 .upper.data    0x0000000000000000        0x0 /opt/msp430-gcc/bin/../lib/gcc/msp430-elf/8.3.1/large/full-memory-range/libgcc.a(_clzdi2.o)
 .upper.bss     0x0000000000000000        0x0 /opt/msp430-gcc/bin/../lib/gcc/msp430-elf/8.3.1/large/full-memory-range/libgcc.a(_clzdi2.o)
 .either.text.__clzdi2
                0x0000000000000000       0x66 /opt/msp430-gcc/bin/../lib/gcc/msp430-elf/8.3.1/large/full-memory-range/libgcc.a(_clzdi2.o)
 .either.text   0x0000000000000000        0x0 /opt/msp430-gcc/bin/../lib/gcc/msp430-elf/8.3.1/large/full-memory-range/libgcc.a(_clz.o)
 .upper.data    0x0000000000000000        0x0 /opt/msp430-gcc/bin/../lib/gcc/msp430-elf/8.3.1/large/full-memory-range/libgcc.a(_clz.o)
 .upper.bss     0x0000000000000000        0x0 /opt/msp430-gcc/bin/../lib/gcc/msp430-elf/8.3.1/large/full-memory-range/libgcc.a(_clz.o)
 .upper.rodata.__clz_tab
                0x0000000000000000      0x100 /opt/msp430-gcc/bin/../lib/gcc/msp430-elf/8.3.1/large/full-memory-range/libgcc.a(_clz.o)
 .either.text   0x0000000000000000        0x0 /opt/msp430-gcc/bin/../lib/gcc/msp430-elf/8.3.1/large/full-memory-range/libmul_f5.a(lib2hw_mul_f5.o)
 .upper.data    0x0000000000000000        0x0 /opt/msp430-gcc/bin/../lib/gcc/msp430-elf/8.3.1/large/full-memory-range/libmul_f5.a(lib2hw_mul_f5.o)
 .upper.bss     0x0000000000000000        0x0 /opt/msp430-gcc/bin/../lib/gcc/msp430-elf/8.3.1/large/full-memory-range/libmul_f5.a(lib2hw_mul_f5.o)
 .either.text.__mulhisi2
                0x0000000000000000       0x1a /opt/msp430-gcc/bin/../lib/gcc/msp430-elf/8.3.1/large/full-memory-range/libmul_f5.a(lib2hw_mul_f5.o)
 .either.text.__mulsi2_f5
                0x0000000000000000       0x22 /opt/msp430-gcc/bin/../lib/gcc/msp430-elf/8.3.1/large/full-memory-range/libmul_f5.a(lib2hw_mul_f5.o)
 .either.text.__mulsidi2
                0x0000000000000000       0x2a /opt/msp430-gcc/bin/../lib/gcc/msp430-elf/8.3.1/large/full-memory-range/libmul_f5.a(lib2hw_mul_f5.o)
 .either.text.__umulsidi2
                0x0000000000000000       0x2a /opt/msp430-gcc/bin/../lib/gcc/msp430-elf/8.3.1/large/full-memory-range/libmul_f5.a(lib2hw_mul_f5.o)
 .either.text.__muldi3
                0x0000000000000000        0x4 /opt/msp430-gcc/bin/../lib/gcc/msp430-elf/8.3.1/large/full-memory-range/libmul_f5.a(lib2hw_mul_f5.o)
 .either.text   0x0000000000000000        0x0 /opt/msp430-gcc/bin/../lib/gcc/msp430-elf/8.3.1/../../../../msp430-elf/lib/large/full-memory-range/libc.a(lib_a-memcpy.o)
 .upper.data    0x0000000000000000        0x0 /opt/msp430-gcc/bin/../lib/gcc/msp430-elf/8.3.1/../../../../msp430-elf/lib/large/full-memory-range/libc.a(lib_a-memcpy.o)
 .upper.bss     0x0000000000000000        0x0 /opt/msp430-gcc/bin/../lib/gcc/msp430-elf/8.3.1/../../../../msp430-elf/lib/large/full-memory-range/libc.a(lib_a-memcpy.o)
 .either.text   0x0000000000000000        0x0 /opt/msp430-gcc/bin/../lib/gcc/msp430-elf/8.3.1/../../../../msp430-elf/lib/large/full-memory-range/libc.a(lib_a-memset.o)
 .upper.data    0x0000000000000000        0x0 /opt/msp430-gcc/bin/../lib/gcc/msp430-elf/8.3.1/../../../../msp430-elf/lib/large/full-memory-range/libc.a(lib_a-memset.o)
 .upper.bss     0x0000000000000000        0x0 /opt/msp430-gcc/bin/../lib/gcc/msp430-elf/8.3.1/../../../../msp430-elf/lib/large/full-memory-range/libc.a(lib_a-memset.o)
 .either.text   0x0000000000000000        0x0 /opt/msp430-gcc/bin/../lib/gcc/msp430-elf/8.3.1/../../../../msp430-elf/lib/large/full-memory-range/libc.a(lib_a-printf.o)
 .upper.data    0x0000000000000000        0x0 /opt/msp430-gcc/bin/../lib/gcc/msp430-elf/8.3.1/../../../../msp430-elf/lib/large/full-memory-range/libc.a(lib_a-printf.o)
 .upper.bss     0x0000000000000000        0x0 /opt/msp430-gcc/bin/../lib/gcc/msp430-elf/8.3.1/../../../../msp430-elf/lib/large/full-memory-range/libc.a(lib_a-printf.o)
 .either.text._printf_r
                0x0000000000000000       0x2c /opt/msp430-gcc/bin/../lib/gcc/msp430-elf/8.3.1/../../../../msp430-elf/lib/large/full-memory-range/libc.a(lib_a-printf.o)
 .either.text   0x0000000000000000        0x0 /opt/msp430-gcc/bin/../lib/gcc/msp430-elf/8.3.1/../../../../msp430-elf/lib/large/full-memory-range/libc.a(lib_a-putchar.o)
 .upper.data    0x0000000000000000        0x0 /opt/msp430-gcc/bin/../lib/gcc/msp430-elf/8.3.1/../../../../msp430-elf/lib/large/full-memory-range/libc.a(lib_a-putchar.o)
 .upper.bss     0x0000000000000000        0x0 /opt/msp430-gcc/bin/../lib/gcc/msp430-elf/8.3.1/../../../../msp430-elf/lib/large/full-memory-range/libc.a(lib_a-putchar.o)
 .either.text._putchar_r
                0x0000000000000000       0x30 /opt/msp430-gcc/bin/../lib/gcc/msp430-elf/8.3.1/../../../../msp430-elf/lib/large/full-memory-range/libc.a(lib_a-putchar.o)
 .either.text   0x0000000000000000        0x0 /opt/msp430-gcc/bin/../lib/gcc/msp430-elf/8.3.1/../../../../msp430-elf/lib/large/full-memory-range/libc.a(lib_a-putc.o)
 .upper.data    0x0000000000000000        0x0 /opt/msp430-gcc/bin/../lib/gcc/msp430-elf/8.3.1/../../../../msp430-elf/lib/large/full-memory-range/libc.a(lib_a-putc.o)
 .upper.bss     0x0000000000000000        0x0 /opt/msp430-gcc/bin/../lib/gcc/msp430-elf/8.3.1/../../../../msp430-elf/lib/large/full-memory-range/libc.a(lib_a-putc.o)
 .either.text.putc
                0x0000000000000000        0xe /opt/msp430-gcc/bin/../lib/gcc/msp430-elf/8.3.1/../../../../msp430-elf/lib/large/full-memory-range/libc.a(lib_a-putc.o)
 .either.text   0x0000000000000000        0x0 /opt/msp430-gcc/bin/../lib/gcc/msp430-elf/8.3.1/../../../../msp430-elf/lib/large/full-memory-range/libc.a(lib_a-puts.o)
 .upper.data    0x0000000000000000        0x0 /opt/msp430-gcc/bin/../lib/gcc/msp430-elf/8.3.1/../../../../msp430-elf/lib/large/full-memory-range/libc.a(lib_a-puts.o)
 .upper.bss     0x0000000000000000        0x0 /opt/msp430-gcc/bin/../lib/gcc/msp430-elf/8.3.1/../../../../msp430-elf/lib/large/full-memory-range/libc.a(lib_a-puts.o)
 .either.text   0x0000000000000000        0x0 /opt/msp430-gcc/bin/../lib/gcc/msp430-elf/8.3.1/../../../../msp430-elf/lib/large/full-memory-range/libc.a(lib_a-strlen.o)
 .upper.data    0x0000000000000000        0x0 /opt/msp430-gcc/bin/../lib/gcc/msp430-elf/8.3.1/../../../../msp430-elf/lib/large/full-memory-range/libc.a(lib_a-strlen.o)
 .upper.bss     0x0000000000000000        0x0 /opt/msp430-gcc/bin/../lib/gcc/msp430-elf/8.3.1/../../../../msp430-elf/lib/large/full-memory-range/libc.a(lib_a-strlen.o)
 .either.text   0x0000000000000000        0x0 /opt/msp430-gcc/bin/../lib/gcc/msp430-elf/8.3.1/../../../../msp430-elf/lib/large/full-memory-range/libc.a(lib_a-wbuf.o)
 .upper.data    0x0000000000000000        0x0 /opt/msp430-gcc/bin/../lib/gcc/msp430-elf/8.3.1/../../../../msp430-elf/lib/large/full-memory-range/libc.a(lib_a-wbuf.o)
 .upper.bss     0x0000000000000000        0x0 /opt/msp430-gcc/bin/../lib/gcc/msp430-elf/8.3.1/../../../../msp430-elf/lib/large/full-memory-range/libc.a(lib_a-wbuf.o)
 .either.text.__swbuf
                0x0000000000000000        0xe /opt/msp430-gcc/bin/../lib/gcc/msp430-elf/8.3.1/../../../../msp430-elf/lib/large/full-memory-range/libc.a(lib_a-wbuf.o)
 .either.text   0x0000000000000000        0x0 /opt/msp430-gcc/bin/../lib/gcc/msp430-elf/8.3.1/../../../../msp430-elf/lib/large/full-memory-range/libc.a(lib_a-wsetup.o)
 .upper.data    0x0000000000000000        0x0 /opt/msp430-gcc/bin/../lib/gcc/msp430-elf/8.3.1/../../../../msp430-elf/lib/large/full-memory-range/libc.a(lib_a-wsetup.o)
 .upper.bss     0x0000000000000000        0x0 /opt/msp430-gcc/bin/../lib/gcc/msp430-elf/8.3.1/../../../../msp430-elf/lib/large/full-memory-range/libc.a(lib_a-wsetup.o)
 .either.text   0x0000000000000000        0x0 /opt/msp430-gcc/bin/../lib/gcc/msp430-elf/8.3.1/../../../../msp430-elf/lib/large/full-memory-range/libc.a(lib_a-fflush.o)
 .upper.data    0x0000000000000000        0x0 /opt/msp430-gcc/bin/../lib/gcc/msp430-elf/8.3.1/../../../../msp430-elf/lib/large/full-memory-range/libc.a(lib_a-fflush.o)
 .upper.bss     0x0000000000000000        0x0 /opt/msp430-gcc/bin/../lib/gcc/msp430-elf/8.3.1/../../../../msp430-elf/lib/large/full-memory-range/libc.a(lib_a-fflush.o)
 .either.text.fflush
                0x0000000000000000       0x22 /opt/msp430-gcc/bin/../lib/gcc/msp430-elf/8.3.1/../../../../msp430-elf/lib/large/full-memory-range/libc.a(lib_a-fflush.o)
 .either.text   0x0000000000000000        0x0 /opt/msp430-gcc/bin/../lib/gcc/msp430-elf/8.3.1/../../../../msp430-elf/lib/large/full-memory-range/libc.a(lib_a-findfp.o)
 .upper.data    0x0000000000000000        0x0 /opt/msp430-gcc/bin/../lib/gcc/msp430-elf/8.3.1/../../../../msp430-elf/lib/large/full-memory-range/libc.a(lib_a-findfp.o)
 .upper.bss     0x0000000000000000        0x0 /opt/msp430-gcc/bin/../lib/gcc/msp430-elf/8.3.1/../../../../msp430-elf/lib/large/full-memory-range/libc.a(lib_a-findfp.o)
 .either.text.__fp_lock
                0x0000000000000000        0x4 /opt/msp430-gcc/bin/../lib/gcc/msp430-elf/8.3.1/../../../../msp430-elf/lib/large/full-memory-range/libc.a(lib_a-findfp.o)
 .either.text.__fp_unlock
                0x0000000000000000        0x4 /opt/msp430-gcc/bin/../lib/gcc/msp430-elf/8.3.1/../../../../msp430-elf/lib/large/full-memory-range/libc.a(lib_a-findfp.o)
 .either.text._cleanup
                0x0000000000000000        0xa /opt/msp430-gcc/bin/../lib/gcc/msp430-elf/8.3.1/../../../../msp430-elf/lib/large/full-memory-range/libc.a(lib_a-findfp.o)
 .either.text.__sinit_lock_acquire
                0x0000000000000000        0x2 /opt/msp430-gcc/bin/../lib/gcc/msp430-elf/8.3.1/../../../../msp430-elf/lib/large/full-memory-range/libc.a(lib_a-findfp.o)
 .either.text.__sinit_lock_release
                0x0000000000000000        0x2 /opt/msp430-gcc/bin/../lib/gcc/msp430-elf/8.3.1/../../../../msp430-elf/lib/large/full-memory-range/libc.a(lib_a-findfp.o)
 .either.text.__fp_lock_all
                0x0000000000000000        0xe /opt/msp430-gcc/bin/../lib/gcc/msp430-elf/8.3.1/../../../../msp430-elf/lib/large/full-memory-range/libc.a(lib_a-findfp.o)
 .either.text.__fp_unlock_all
                0x0000000000000000        0xe /opt/msp430-gcc/bin/../lib/gcc/msp430-elf/8.3.1/../../../../msp430-elf/lib/large/full-memory-range/libc.a(lib_a-findfp.o)
 .either.text   0x0000000000000000        0x0 /opt/msp430-gcc/bin/../lib/gcc/msp430-elf/8.3.1/../../../../msp430-elf/lib/large/full-memory-range/libc.a(lib_a-fvwrite.o)
 .upper.data    0x0000000000000000        0x0 /opt/msp430-gcc/bin/../lib/gcc/msp430-elf/8.3.1/../../../../msp430-elf/lib/large/full-memory-range/libc.a(lib_a-fvwrite.o)
 .upper.bss     0x0000000000000000        0x0 /opt/msp430-gcc/bin/../lib/gcc/msp430-elf/8.3.1/../../../../msp430-elf/lib/large/full-memory-range/libc.a(lib_a-fvwrite.o)
 .either.text   0x0000000000000000        0x0 /opt/msp430-gcc/bin/../lib/gcc/msp430-elf/8.3.1/../../../../msp430-elf/lib/large/full-memory-range/libc.a(lib_a-fwalk.o)
 .upper.data    0x0000000000000000        0x0 /opt/msp430-gcc/bin/../lib/gcc/msp430-elf/8.3.1/../../../../msp430-elf/lib/large/full-memory-range/libc.a(lib_a-fwalk.o)
 .upper.bss     0x0000000000000000        0x0 /opt/msp430-gcc/bin/../lib/gcc/msp430-elf/8.3.1/../../../../msp430-elf/lib/large/full-memory-range/libc.a(lib_a-fwalk.o)
 .either.text._fwalk
                0x0000000000000000       0x4e /opt/msp430-gcc/bin/../lib/gcc/msp430-elf/8.3.1/../../../../msp430-elf/lib/large/full-memory-range/libc.a(lib_a-fwalk.o)
 .either.text   0x0000000000000000        0x0 /opt/msp430-gcc/bin/../lib/gcc/msp430-elf/8.3.1/../../../../msp430-elf/lib/large/full-memory-range/libc.a(lib_a-impure.o)
 .upper.data    0x0000000000000000        0x0 /opt/msp430-gcc/bin/../lib/gcc/msp430-elf/8.3.1/../../../../msp430-elf/lib/large/full-memory-range/libc.a(lib_a-impure.o)
 .upper.bss     0x0000000000000000        0x0 /opt/msp430-gcc/bin/../lib/gcc/msp430-elf/8.3.1/../../../../msp430-elf/lib/large/full-memory-range/libc.a(lib_a-impure.o)
 .either.text   0x0000000000000000        0x0 /opt/msp430-gcc/bin/../lib/gcc/msp430-elf/8.3.1/../../../../msp430-elf/lib/large/full-memory-range/libc.a(lib_a-makebuf.o)
 .upper.data    0x0000000000000000        0x0 /opt/msp430-gcc/bin/../lib/gcc/msp430-elf/8.3.1/../../../../msp430-elf/lib/large/full-memory-range/libc.a(lib_a-makebuf.o)
 .upper.bss     0x0000000000000000        0x0 /opt/msp430-gcc/bin/../lib/gcc/msp430-elf/8.3.1/../../../../msp430-elf/lib/large/full-memory-range/libc.a(lib_a-makebuf.o)
 .either.text   0x0000000000000000        0x0 /opt/msp430-gcc/bin/../lib/gcc/msp430-elf/8.3.1/../../../../msp430-elf/lib/large/full-memory-range/libc.a(lib_a-memchr.o)
 .upper.data    0x0000000000000000        0x0 /opt/msp430-gcc/bin/../lib/gcc/msp430-elf/8.3.1/../../../../msp430-elf/lib/large/full-memory-range/libc.a(lib_a-memchr.o)
 .upper.bss     0x0000000000000000        0x0 /opt/msp430-gcc/bin/../lib/gcc/msp430-elf/8.3.1/../../../../msp430-elf/lib/large/full-memory-range/libc.a(lib_a-memchr.o)
 .either.text   0x0000000000000000        0x0 /opt/msp430-gcc/bin/../lib/gcc/msp430-elf/8.3.1/../../../../msp430-elf/lib/large/full-memory-range/libc.a(lib_a-memmove.o)
 .upper.data    0x0000000000000000        0x0 /opt/msp430-gcc/bin/../lib/gcc/msp430-elf/8.3.1/../../../../msp430-elf/lib/large/full-memory-range/libc.a(lib_a-memmove.o)
 .upper.bss     0x0000000000000000        0x0 /opt/msp430-gcc/bin/../lib/gcc/msp430-elf/8.3.1/../../../../msp430-elf/lib/large/full-memory-range/libc.a(lib_a-memmove.o)
 .either.text   0x0000000000000000        0x0 /opt/msp430-gcc/bin/../lib/gcc/msp430-elf/8.3.1/../../../../msp430-elf/lib/large/full-memory-range/libc.a(lib_a-nano-freer.o)
 .upper.data    0x0000000000000000        0x0 /opt/msp430-gcc/bin/../lib/gcc/msp430-elf/8.3.1/../../../../msp430-elf/lib/large/full-memory-range/libc.a(lib_a-nano-freer.o)
 .upper.bss     0x0000000000000000        0x0 /opt/msp430-gcc/bin/../lib/gcc/msp430-elf/8.3.1/../../../../msp430-elf/lib/large/full-memory-range/libc.a(lib_a-nano-freer.o)
 .either.text   0x0000000000000000        0x0 /opt/msp430-gcc/bin/../lib/gcc/msp430-elf/8.3.1/../../../../msp430-elf/lib/large/full-memory-range/libc.a(lib_a-nano-mallocr.o)
 .upper.data    0x0000000000000000        0x0 /opt/msp430-gcc/bin/../lib/gcc/msp430-elf/8.3.1/../../../../msp430-elf/lib/large/full-memory-range/libc.a(lib_a-nano-mallocr.o)
 .upper.bss     0x0000000000000000        0x0 /opt/msp430-gcc/bin/../lib/gcc/msp430-elf/8.3.1/../../../../msp430-elf/lib/large/full-memory-range/libc.a(lib_a-nano-mallocr.o)
 .either.text   0x0000000000000000        0x0 /opt/msp430-gcc/bin/../lib/gcc/msp430-elf/8.3.1/../../../../msp430-elf/lib/large/full-memory-range/libc.a(lib_a-nano-reallocr.o)
 .upper.data    0x0000000000000000        0x0 /opt/msp430-gcc/bin/../lib/gcc/msp430-elf/8.3.1/../../../../msp430-elf/lib/large/full-memory-range/libc.a(lib_a-nano-reallocr.o)
 .upper.bss     0x0000000000000000        0x0 /opt/msp430-gcc/bin/../lib/gcc/msp430-elf/8.3.1/../../../../msp430-elf/lib/large/full-memory-range/libc.a(lib_a-nano-reallocr.o)
 .either.text   0x0000000000000000        0x0 /opt/msp430-gcc/bin/../lib/gcc/msp430-elf/8.3.1/../../../../msp430-elf/lib/large/full-memory-range/libc.a(lib_a-nano-vfprintf.o)
 .upper.data    0x0000000000000000        0x0 /opt/msp430-gcc/bin/../lib/gcc/msp430-elf/8.3.1/../../../../msp430-elf/lib/large/full-memory-range/libc.a(lib_a-nano-vfprintf.o)
 .upper.bss     0x0000000000000000        0x0 /opt/msp430-gcc/bin/../lib/gcc/msp430-elf/8.3.1/../../../../msp430-elf/lib/large/full-memory-range/libc.a(lib_a-nano-vfprintf.o)
 .either.text.__sprint_r
                0x0000000000000000       0xca /opt/msp430-gcc/bin/../lib/gcc/msp430-elf/8.3.1/../../../../msp430-elf/lib/large/full-memory-range/libc.a(lib_a-nano-vfprintf.o)
 .either.text.vfprintf
                0x0000000000000000       0x10 /opt/msp430-gcc/bin/../lib/gcc/msp430-elf/8.3.1/../../../../msp430-elf/lib/large/full-memory-range/libc.a(lib_a-nano-vfprintf.o)
 .either.text   0x0000000000000000        0x0 /opt/msp430-gcc/bin/../lib/gcc/msp430-elf/8.3.1/../../../../msp430-elf/lib/large/full-memory-range/libc.a(lib_a-sbrkr.o)
 .upper.data    0x0000000000000000        0x0 /opt/msp430-gcc/bin/../lib/gcc/msp430-elf/8.3.1/../../../../msp430-elf/lib/large/full-memory-range/libc.a(lib_a-sbrkr.o)
 .upper.bss     0x0000000000000000        0x0 /opt/msp430-gcc/bin/../lib/gcc/msp430-elf/8.3.1/../../../../msp430-elf/lib/large/full-memory-range/libc.a(lib_a-sbrkr.o)
 .either.text   0x0000000000000000        0x0 /opt/msp430-gcc/bin/../lib/gcc/msp430-elf/8.3.1/../../../../msp430-elf/lib/large/full-memory-range/libc.a(lib_a-stdio.o)
 .upper.data    0x0000000000000000        0x0 /opt/msp430-gcc/bin/../lib/gcc/msp430-elf/8.3.1/../../../../msp430-elf/lib/large/full-memory-range/libc.a(lib_a-stdio.o)
 .upper.bss     0x0000000000000000        0x0 /opt/msp430-gcc/bin/../lib/gcc/msp430-elf/8.3.1/../../../../msp430-elf/lib/large/full-memory-range/libc.a(lib_a-stdio.o)
 .either.text.__seofread
                0x0000000000000000        0x4 /opt/msp430-gcc/bin/../lib/gcc/msp430-elf/8.3.1/../../../../msp430-elf/lib/large/full-memory-range/libc.a(lib_a-stdio.o)
 .either.text   0x0000000000000000        0x0 /opt/msp430-gcc/bin/../lib/gcc/msp430-elf/8.3.1/../../../../msp430-elf/lib/large/full-memory-range/libc.a(lib_a-writer.o)
 .upper.data    0x0000000000000000        0x0 /opt/msp430-gcc/bin/../lib/gcc/msp430-elf/8.3.1/../../../../msp430-elf/lib/large/full-memory-range/libc.a(lib_a-writer.o)
 .upper.bss     0x0000000000000000        0x0 /opt/msp430-gcc/bin/../lib/gcc/msp430-elf/8.3.1/../../../../msp430-elf/lib/large/full-memory-range/libc.a(lib_a-writer.o)
 .either.text   0x0000000000000000        0x0 /opt/msp430-gcc/bin/../lib/gcc/msp430-elf/8.3.1/../../../../msp430-elf/lib/large/full-memory-range/libc.a(lib_a-closer.o)
 .upper.data    0x0000000000000000        0x0 /opt/msp430-gcc/bin/../lib/gcc/msp430-elf/8.3.1/../../../../msp430-elf/lib/large/full-memory-range/libc.a(lib_a-closer.o)
 .upper.bss     0x0000000000000000        0x0 /opt/msp430-gcc/bin/../lib/gcc/msp430-elf/8.3.1/../../../../msp430-elf/lib/large/full-memory-range/libc.a(lib_a-closer.o)
 .either.text   0x0000000000000000        0x0 /opt/msp430-gcc/bin/../lib/gcc/msp430-elf/8.3.1/../../../../msp430-elf/lib/large/full-memory-range/libc.a(lib_a-fclose.o)
 .upper.data    0x0000000000000000        0x0 /opt/msp430-gcc/bin/../lib/gcc/msp430-elf/8.3.1/../../../../msp430-elf/lib/large/full-memory-range/libc.a(lib_a-fclose.o)
 .upper.bss     0x0000000000000000        0x0 /opt/msp430-gcc/bin/../lib/gcc/msp430-elf/8.3.1/../../../../msp430-elf/lib/large/full-memory-range/libc.a(lib_a-fclose.o)
 .either.text.fclose
                0x0000000000000000        0xc /opt/msp430-gcc/bin/../lib/gcc/msp430-elf/8.3.1/../../../../msp430-elf/lib/large/full-memory-range/libc.a(lib_a-fclose.o)
 .either.text   0x0000000000000000        0x0 /opt/msp430-gcc/bin/../lib/gcc/msp430-elf/8.3.1/../../../../msp430-elf/lib/large/full-memory-range/libc.a(lib_a-fputwc.o)
 .upper.data    0x0000000000000000        0x0 /opt/msp430-gcc/bin/../lib/gcc/msp430-elf/8.3.1/../../../../msp430-elf/lib/large/full-memory-range/libc.a(lib_a-fputwc.o)
 .upper.bss     0x0000000000000000        0x0 /opt/msp430-gcc/bin/../lib/gcc/msp430-elf/8.3.1/../../../../msp430-elf/lib/large/full-memory-range/libc.a(lib_a-fputwc.o)
 .either.text.fputwc
                0x0000000000000000       0x58 /opt/msp430-gcc/bin/../lib/gcc/msp430-elf/8.3.1/../../../../msp430-elf/lib/large/full-memory-range/libc.a(lib_a-fputwc.o)
 .either.text   0x0000000000000000        0x0 /opt/msp430-gcc/bin/../lib/gcc/msp430-elf/8.3.1/../../../../msp430-elf/lib/large/full-memory-range/libc.a(lib_a-fstatr.o)
 .upper.data    0x0000000000000000        0x0 /opt/msp430-gcc/bin/../lib/gcc/msp430-elf/8.3.1/../../../../msp430-elf/lib/large/full-memory-range/libc.a(lib_a-fstatr.o)
 .upper.bss     0x0000000000000000        0x0 /opt/msp430-gcc/bin/../lib/gcc/msp430-elf/8.3.1/../../../../msp430-elf/lib/large/full-memory-range/libc.a(lib_a-fstatr.o)
 .either.text   0x0000000000000000        0x0 /opt/msp430-gcc/bin/../lib/gcc/msp430-elf/8.3.1/../../../../msp430-elf/lib/large/full-memory-range/libc.a(lib_a-isattyr.o)
 .upper.data    0x0000000000000000        0x0 /opt/msp430-gcc/bin/../lib/gcc/msp430-elf/8.3.1/../../../../msp430-elf/lib/large/full-memory-range/libc.a(lib_a-isattyr.o)
 .upper.bss     0x0000000000000000        0x0 /opt/msp430-gcc/bin/../lib/gcc/msp430-elf/8.3.1/../../../../msp430-elf/lib/large/full-memory-range/libc.a(lib_a-isattyr.o)
 .either.text   0x0000000000000000        0x0 /opt/msp430-gcc/bin/../lib/gcc/msp430-elf/8.3.1/../../../../msp430-elf/lib/large/full-memory-range/libc.a(lib_a-locale.o)
 .upper.data    0x0000000000000000        0x0 /opt/msp430-gcc/bin/../lib/gcc/msp430-elf/8.3.1/../../../../msp430-elf/lib/large/full-memory-range/libc.a(lib_a-locale.o)
 .upper.bss     0x0000000000000000        0x0 /opt/msp430-gcc/bin/../lib/gcc/msp430-elf/8.3.1/../../../../msp430-elf/lib/large/full-memory-range/libc.a(lib_a-locale.o)
 .upper.rodata  0x0000000000000000        0xb /opt/msp430-gcc/bin/../lib/gcc/msp430-elf/8.3.1/../../../../msp430-elf/lib/large/full-memory-range/libc.a(lib_a-locale.o)
 .either.text._setlocale_r
                0x0000000000000000       0x44 /opt/msp430-gcc/bin/../lib/gcc/msp430-elf/8.3.1/../../../../msp430-elf/lib/large/full-memory-range/libc.a(lib_a-locale.o)
 .either.text.__locale_msgcharset
                0x0000000000000000        0x6 /opt/msp430-gcc/bin/../lib/gcc/msp430-elf/8.3.1/../../../../msp430-elf/lib/large/full-memory-range/libc.a(lib_a-locale.o)
 .either.text.__locale_cjk_lang
                0x0000000000000000        0x4 /opt/msp430-gcc/bin/../lib/gcc/msp430-elf/8.3.1/../../../../msp430-elf/lib/large/full-memory-range/libc.a(lib_a-locale.o)
 .either.text._localeconv_r
                0x0000000000000000        0x6 /opt/msp430-gcc/bin/../lib/gcc/msp430-elf/8.3.1/../../../../msp430-elf/lib/large/full-memory-range/libc.a(lib_a-locale.o)
 .either.text.setlocale
                0x0000000000000000        0xe /opt/msp430-gcc/bin/../lib/gcc/msp430-elf/8.3.1/../../../../msp430-elf/lib/large/full-memory-range/libc.a(lib_a-locale.o)
 .either.text.localeconv
                0x0000000000000000        0x6 /opt/msp430-gcc/bin/../lib/gcc/msp430-elf/8.3.1/../../../../msp430-elf/lib/large/full-memory-range/libc.a(lib_a-locale.o)
 .upper.data.lc_message_charset
                0x0000000000000000       0x20 /opt/msp430-gcc/bin/../lib/gcc/msp430-elf/8.3.1/../../../../msp430-elf/lib/large/full-memory-range/libc.a(lib_a-locale.o)
 .upper.data.lconv
                0x0000000000000000       0x36 /opt/msp430-gcc/bin/../lib/gcc/msp430-elf/8.3.1/../../../../msp430-elf/lib/large/full-memory-range/libc.a(lib_a-locale.o)
 .upper.bss._PathLocale
                0x0000000000000000        0x4 /opt/msp430-gcc/bin/../lib/gcc/msp430-elf/8.3.1/../../../../msp430-elf/lib/large/full-memory-range/libc.a(lib_a-locale.o)
 .upper.bss.__mlocale_changed
                0x0000000000000000        0x2 /opt/msp430-gcc/bin/../lib/gcc/msp430-elf/8.3.1/../../../../msp430-elf/lib/large/full-memory-range/libc.a(lib_a-locale.o)
 .upper.bss.__nlocale_changed
                0x0000000000000000        0x2 /opt/msp430-gcc/bin/../lib/gcc/msp430-elf/8.3.1/../../../../msp430-elf/lib/large/full-memory-range/libc.a(lib_a-locale.o)
 .either.text   0x0000000000000000        0x0 /opt/msp430-gcc/bin/../lib/gcc/msp430-elf/8.3.1/../../../../msp430-elf/lib/large/full-memory-range/libc.a(lib_a-lseekr.o)
 .upper.data    0x0000000000000000        0x0 /opt/msp430-gcc/bin/../lib/gcc/msp430-elf/8.3.1/../../../../msp430-elf/lib/large/full-memory-range/libc.a(lib_a-lseekr.o)
 .upper.bss     0x0000000000000000        0x0 /opt/msp430-gcc/bin/../lib/gcc/msp430-elf/8.3.1/../../../../msp430-elf/lib/large/full-memory-range/libc.a(lib_a-lseekr.o)
 .either.text   0x0000000000000000        0x0 /opt/msp430-gcc/bin/../lib/gcc/msp430-elf/8.3.1/../../../../msp430-elf/lib/large/full-memory-range/libc.a(lib_a-nano-msizer.o)
 .upper.data    0x0000000000000000        0x0 /opt/msp430-gcc/bin/../lib/gcc/msp430-elf/8.3.1/../../../../msp430-elf/lib/large/full-memory-range/libc.a(lib_a-nano-msizer.o)
 .upper.bss     0x0000000000000000        0x0 /opt/msp430-gcc/bin/../lib/gcc/msp430-elf/8.3.1/../../../../msp430-elf/lib/large/full-memory-range/libc.a(lib_a-nano-msizer.o)
 .either.text   0x0000000000000000        0x0 /opt/msp430-gcc/bin/../lib/gcc/msp430-elf/8.3.1/../../../../msp430-elf/lib/large/full-memory-range/libc.a(lib_a-nano-vfprintf_i.o)
 .upper.data    0x0000000000000000        0x0 /opt/msp430-gcc/bin/../lib/gcc/msp430-elf/8.3.1/../../../../msp430-elf/lib/large/full-memory-range/libc.a(lib_a-nano-vfprintf_i.o)
 .upper.bss     0x0000000000000000        0x0 /opt/msp430-gcc/bin/../lib/gcc/msp430-elf/8.3.1/../../../../msp430-elf/lib/large/full-memory-range/libc.a(lib_a-nano-vfprintf_i.o)
 .either.text   0x0000000000000000        0x0 /opt/msp430-gcc/bin/../lib/gcc/msp430-elf/8.3.1/../../../../msp430-elf/lib/large/full-memory-range/libc.a(lib_a-readr.o)
 .upper.data    0x0000000000000000        0x0 /opt/msp430-gcc/bin/../lib/gcc/msp430-elf/8.3.1/../../../../msp430-elf/lib/large/full-memory-range/libc.a(lib_a-readr.o)
 .upper.bss     0x0000000000000000        0x0 /opt/msp430-gcc/bin/../lib/gcc/msp430-elf/8.3.1/../../../../msp430-elf/lib/large/full-memory-range/libc.a(lib_a-readr.o)
 .either.text   0x0000000000000000        0x0 /opt/msp430-gcc/bin/../lib/gcc/msp430-elf/8.3.1/../../../../msp430-elf/lib/large/full-memory-range/libc.a(lib_a-reent.o)
 .upper.data    0x0000000000000000        0x0 /opt/msp430-gcc/bin/../lib/gcc/msp430-elf/8.3.1/../../../../msp430-elf/lib/large/full-memory-range/libc.a(lib_a-reent.o)
 .upper.bss     0x0000000000000000        0x0 /opt/msp430-gcc/bin/../lib/gcc/msp430-elf/8.3.1/../../../../msp430-elf/lib/large/full-memory-range/libc.a(lib_a-reent.o)
 .either.text.cleanup_glue
                0x0000000000000000       0x22 /opt/msp430-gcc/bin/../lib/gcc/msp430-elf/8.3.1/../../../../msp430-elf/lib/large/full-memory-range/libc.a(lib_a-reent.o)
 .either.text._reclaim_reent
                0x0000000000000000      0x136 /opt/msp430-gcc/bin/../lib/gcc/msp430-elf/8.3.1/../../../../msp430-elf/lib/large/full-memory-range/libc.a(lib_a-reent.o)
 .either.text   0x0000000000000000        0x0 /opt/msp430-gcc/bin/../lib/gcc/msp430-elf/8.3.1/../../../../msp430-elf/lib/large/full-memory-range/libc.a(lib_a-strcmp.o)
 .upper.data    0x0000000000000000        0x0 /opt/msp430-gcc/bin/../lib/gcc/msp430-elf/8.3.1/../../../../msp430-elf/lib/large/full-memory-range/libc.a(lib_a-strcmp.o)
 .upper.bss     0x0000000000000000        0x0 /opt/msp430-gcc/bin/../lib/gcc/msp430-elf/8.3.1/../../../../msp430-elf/lib/large/full-memory-range/libc.a(lib_a-strcmp.o)
 .either.text.strcmp
                0x0000000000000000       0x12 /opt/msp430-gcc/bin/../lib/gcc/msp430-elf/8.3.1/../../../../msp430-elf/lib/large/full-memory-range/libc.a(lib_a-strcmp.o)
 .either.text   0x0000000000000000        0x0 /opt/msp430-gcc/bin/../lib/gcc/msp430-elf/8.3.1/../../../../msp430-elf/lib/large/full-memory-range/libc.a(lib_a-wcrtomb.o)
 .upper.data    0x0000000000000000        0x0 /opt/msp430-gcc/bin/../lib/gcc/msp430-elf/8.3.1/../../../../msp430-elf/lib/large/full-memory-range/libc.a(lib_a-wcrtomb.o)
 .upper.bss     0x0000000000000000        0x0 /opt/msp430-gcc/bin/../lib/gcc/msp430-elf/8.3.1/../../../../msp430-elf/lib/large/full-memory-range/libc.a(lib_a-wcrtomb.o)
 .either.text.wcrtomb
                0x0000000000000000       0x1c /opt/msp430-gcc/bin/../lib/gcc/msp430-elf/8.3.1/../../../../msp430-elf/lib/large/full-memory-range/libc.a(lib_a-wcrtomb.o)
 .either.text   0x0000000000000000        0x0 /opt/msp430-gcc/bin/../lib/gcc/msp430-elf/8.3.1/../../../../msp430-elf/lib/large/full-memory-range/libc.a(lib_a-wctomb_r.o)
 .upper.data    0x0000000000000000        0x0 /opt/msp430-gcc/bin/../lib/gcc/msp430-elf/8.3.1/../../../../msp430-elf/lib/large/full-memory-range/libc.a(lib_a-wctomb_r.o)
 .upper.bss     0x0000000000000000        0x0 /opt/msp430-gcc/bin/../lib/gcc/msp430-elf/8.3.1/../../../../msp430-elf/lib/large/full-memory-range/libc.a(lib_a-wctomb_r.o)
 .either.text._wctomb_r
                0x0000000000000000       0x44 /opt/msp430-gcc/bin/../lib/gcc/msp430-elf/8.3.1/../../../../msp430-elf/lib/large/full-memory-range/libc.a(lib_a-wctomb_r.o)
 .either.text   0x0000000000000000        0x0 /opt/msp430-gcc/bin/../lib/gcc/msp430-elf/8.3.1/large/full-memory-range/libgcc.a(_muldi3.o)
 .upper.data    0x0000000000000000        0x0 /opt/msp430-gcc/bin/../lib/gcc/msp430-elf/8.3.1/large/full-memory-range/libgcc.a(_muldi3.o)
 .upper.bss     0x0000000000000000        0x0 /opt/msp430-gcc/bin/../lib/gcc/msp430-elf/8.3.1/large/full-memory-range/libgcc.a(_muldi3.o)
 .either.text.__muldi3
                0x0000000000000000      0x13a /opt/msp430-gcc/bin/../lib/gcc/msp430-elf/8.3.1/large/full-memory-range/libgcc.a(_muldi3.o)
 .either.text   0x0000000000000000        0x0 /opt/msp430-gcc/bin/../lib/gcc/msp430-elf/8.3.1/large/full-memory-range/libgcc.a(lib2divHI.o)
 .upper.data    0x0000000000000000        0x0 /opt/msp430-gcc/bin/../lib/gcc/msp430-elf/8.3.1/large/full-memory-range/libgcc.a(lib2divHI.o)
 .upper.bss     0x0000000000000000        0x0 /opt/msp430-gcc/bin/../lib/gcc/msp430-elf/8.3.1/large/full-memory-range/libgcc.a(lib2divHI.o)
 .either.text.__modhi3
                0x0000000000000000       0x32 /opt/msp430-gcc/bin/../lib/gcc/msp430-elf/8.3.1/large/full-memory-range/libgcc.a(lib2divHI.o)
 .either.text.__udivhi3
                0x0000000000000000        0x8 /opt/msp430-gcc/bin/../lib/gcc/msp430-elf/8.3.1/large/full-memory-range/libgcc.a(lib2divHI.o)
 .either.text.__umodhi3
                0x0000000000000000        0x8 /opt/msp430-gcc/bin/../lib/gcc/msp430-elf/8.3.1/large/full-memory-range/libgcc.a(lib2divHI.o)
 .either.text   0x0000000000000000        0x0 /opt/msp430-gcc/bin/../lib/gcc/msp430-elf/8.3.1/../../../../msp430-elf/lib/large/full-memory-range/libcrt.a(crt_bss.o)
 .upper.data    0x0000000000000000        0x0 /opt/msp430-gcc/bin/../lib/gcc/msp430-elf/8.3.1/../../../../msp430-elf/lib/large/full-memory-range/libcrt.a(crt_bss.o)
 .upper.bss     0x0000000000000000        0x0 /opt/msp430-gcc/bin/../lib/gcc/msp430-elf/8.3.1/../../../../msp430-elf/lib/large/full-memory-range/libcrt.a(crt_bss.o)
 .either.text   0x0000000000000000        0x0 /opt/msp430-gcc/bin/../lib/gcc/msp430-elf/8.3.1/../../../../msp430-elf/lib/large/full-memory-range/libcrt.a(crt_high_bss.o)
 .upper.data    0x0000000000000000        0x0 /opt/msp430-gcc/bin/../lib/gcc/msp430-elf/8.3.1/../../../../msp430-elf/lib/large/full-memory-range/libcrt.a(crt_high_bss.o)
 .upper.bss     0x0000000000000000        0x0 /opt/msp430-gcc/bin/../lib/gcc/msp430-elf/8.3.1/../../../../msp430-elf/lib/large/full-memory-range/libcrt.a(crt_high_bss.o)
 .either.text   0x0000000000000000        0x0 /opt/msp430-gcc/bin/../lib/gcc/msp430-elf/8.3.1/../../../../msp430-elf/lib/large/full-memory-range/libcrt.a(crt_movedata.o)
 .upper.data    0x0000000000000000        0x0 /opt/msp430-gcc/bin/../lib/gcc/msp430-elf/8.3.1/../../../../msp430-elf/lib/large/full-memory-range/libcrt.a(crt_movedata.o)
 .upper.bss     0x0000000000000000        0x0 /opt/msp430-gcc/bin/../lib/gcc/msp430-elf/8.3.1/../../../../msp430-elf/lib/large/full-memory-range/libcrt.a(crt_movedata.o)
 .either.text   0x0000000000000000        0x0 /opt/msp430-gcc/bin/../lib/gcc/msp430-elf/8.3.1/../../../../msp430-elf/lib/large/full-memory-range/libcrt.a(crt_move_highdata.o)
 .upper.data    0x0000000000000000        0x0 /opt/msp430-gcc/bin/../lib/gcc/msp430-elf/8.3.1/../../../../msp430-elf/lib/large/full-memory-range/libcrt.a(crt_move_highdata.o)
 .upper.bss     0x0000000000000000        0x0 /opt/msp430-gcc/bin/../lib/gcc/msp430-elf/8.3.1/../../../../msp430-elf/lib/large/full-memory-range/libcrt.a(crt_move_highdata.o)
 .either.text   0x0000000000000000        0x0 /opt/msp430-gcc/bin/../lib/gcc/msp430-elf/8.3.1/../../../../msp430-elf/lib/large/full-memory-range/libcrt.a(crt_main.o)
 .upper.data    0x0000000000000000        0x0 /opt/msp430-gcc/bin/../lib/gcc/msp430-elf/8.3.1/../../../../msp430-elf/lib/large/full-memory-range/libcrt.a(crt_main.o)
 .upper.bss     0x0000000000000000        0x0 /opt/msp430-gcc/bin/../lib/gcc/msp430-elf/8.3.1/../../../../msp430-elf/lib/large/full-memory-range/libcrt.a(crt_main.o)
 .either.text   0x0000000000000000        0x0 /opt/msp430-gcc/bin/../lib/gcc/msp430-elf/8.3.1/../../../../msp430-elf/lib/large/full-memory-range/libnosys.a(ciosyscalls.o)
 .upper.data    0x0000000000000000        0x0 /opt/msp430-gcc/bin/../lib/gcc/msp430-elf/8.3.1/../../../../msp430-elf/lib/large/full-memory-range/libnosys.a(ciosyscalls.o)
 .upper.bss     0x0000000000000000        0x0 /opt/msp430-gcc/bin/../lib/gcc/msp430-elf/8.3.1/../../../../msp430-elf/lib/large/full-memory-range/libnosys.a(ciosyscalls.o)
 .either.text.open
                0x0000000000000000       0x10 /opt/msp430-gcc/bin/../lib/gcc/msp430-elf/8.3.1/../../../../msp430-elf/lib/large/full-memory-range/libnosys.a(ciosyscalls.o)
 .either.text   0x0000000000000000        0x0 /opt/msp430-gcc/bin/../lib/gcc/msp430-elf/8.3.1/../../../../msp430-elf/lib/large/full-memory-range/libnosys.a(write.o)
 .upper.data    0x0000000000000000        0x0 /opt/msp430-gcc/bin/../lib/gcc/msp430-elf/8.3.1/../../../../msp430-elf/lib/large/full-memory-range/libnosys.a(write.o)
 .upper.bss     0x0000000000000000        0x0 /opt/msp430-gcc/bin/../lib/gcc/msp430-elf/8.3.1/../../../../msp430-elf/lib/large/full-memory-range/libnosys.a(write.o)
 .either.text   0x0000000000000000        0x0 /opt/msp430-gcc/bin/../lib/gcc/msp430-elf/8.3.1/../../../../msp430-elf/lib/large/full-memory-range/libnosys.a(sbrk.o)
 .upper.data    0x0000000000000000        0x0 /opt/msp430-gcc/bin/../lib/gcc/msp430-elf/8.3.1/../../../../msp430-elf/lib/large/full-memory-range/libnosys.a(sbrk.o)
 .upper.bss     0x0000000000000000        0x0 /opt/msp430-gcc/bin/../lib/gcc/msp430-elf/8.3.1/../../../../msp430-elf/lib/large/full-memory-range/libnosys.a(sbrk.o)
 .upper.bss     0x0000000000000000        0x0 /opt/msp430-gcc/bin/../lib/gcc/msp430-elf/8.3.1/../../../../msp430-elf/lib/large/full-memory-range/libnosys.a(cio.o)
 .either.text   0x0000000000000000        0x0 /opt/msp430-gcc/bin/../lib/gcc/msp430-elf/8.3.1/../../../../msp430-elf/lib/large/full-memory-range/libc.a(lib_a-abort.o)
 .upper.data    0x0000000000000000        0x0 /opt/msp430-gcc/bin/../lib/gcc/msp430-elf/8.3.1/../../../../msp430-elf/lib/large/full-memory-range/libc.a(lib_a-abort.o)
 .upper.bss     0x0000000000000000        0x0 /opt/msp430-gcc/bin/../lib/gcc/msp430-elf/8.3.1/../../../../msp430-elf/lib/large/full-memory-range/libc.a(lib_a-abort.o)
 .either.text   0x0000000000000000        0x0 /opt/msp430-gcc/bin/../lib/gcc/msp430-elf/8.3.1/../../../../msp430-elf/lib/large/full-memory-range/libc.a(lib_a-errno.o)
 .upper.data    0x0000000000000000        0x0 /opt/msp430-gcc/bin/../lib/gcc/msp430-elf/8.3.1/../../../../msp430-elf/lib/large/full-memory-range/libc.a(lib_a-errno.o)
 .upper.bss     0x0000000000000000        0x0 /opt/msp430-gcc/bin/../lib/gcc/msp430-elf/8.3.1/../../../../msp430-elf/lib/large/full-memory-range/libc.a(lib_a-errno.o)
 .either.text   0x0000000000000000        0x0 /opt/msp430-gcc/bin/../lib/gcc/msp430-elf/8.3.1/../../../../msp430-elf/lib/large/full-memory-range/libc.a(lib_a-signal.o)
 .upper.data    0x0000000000000000        0x0 /opt/msp430-gcc/bin/../lib/gcc/msp430-elf/8.3.1/../../../../msp430-elf/lib/large/full-memory-range/libc.a(lib_a-signal.o)
 .upper.bss     0x0000000000000000        0x0 /opt/msp430-gcc/bin/../lib/gcc/msp430-elf/8.3.1/../../../../msp430-elf/lib/large/full-memory-range/libc.a(lib_a-signal.o)
 .either.text._init_signal_r
                0x0000000000000000       0x3e /opt/msp430-gcc/bin/../lib/gcc/msp430-elf/8.3.1/../../../../msp430-elf/lib/large/full-memory-range/libc.a(lib_a-signal.o)
 .either.text._signal_r
                0x0000000000000000       0x70 /opt/msp430-gcc/bin/../lib/gcc/msp430-elf/8.3.1/../../../../msp430-elf/lib/large/full-memory-range/libc.a(lib_a-signal.o)
 .either.text.__sigtramp_r
                0x0000000000000000       0x98 /opt/msp430-gcc/bin/../lib/gcc/msp430-elf/8.3.1/../../../../msp430-elf/lib/large/full-memory-range/libc.a(lib_a-signal.o)
 .either.text.signal
                0x0000000000000000        0xe /opt/msp430-gcc/bin/../lib/gcc/msp430-elf/8.3.1/../../../../msp430-elf/lib/large/full-memory-range/libc.a(lib_a-signal.o)
 .either.text._init_signal
                0x0000000000000000        0xa /opt/msp430-gcc/bin/../lib/gcc/msp430-elf/8.3.1/../../../../msp430-elf/lib/large/full-memory-range/libc.a(lib_a-signal.o)
 .either.text.__sigtramp
                0x0000000000000000        0xc /opt/msp430-gcc/bin/../lib/gcc/msp430-elf/8.3.1/../../../../msp430-elf/lib/large/full-memory-range/libc.a(lib_a-signal.o)
 .either.text   0x0000000000000000        0x0 /opt/msp430-gcc/bin/../lib/gcc/msp430-elf/8.3.1/../../../../msp430-elf/lib/large/full-memory-range/libc.a(lib_a-signalr.o)
 .upper.data    0x0000000000000000        0x0 /opt/msp430-gcc/bin/../lib/gcc/msp430-elf/8.3.1/../../../../msp430-elf/lib/large/full-memory-range/libc.a(lib_a-signalr.o)
 .upper.bss     0x0000000000000000        0x0 /opt/msp430-gcc/bin/../lib/gcc/msp430-elf/8.3.1/../../../../msp430-elf/lib/large/full-memory-range/libc.a(lib_a-signalr.o)
 .either.text   0x0000000000000000        0x0 /opt/msp430-gcc/bin/../lib/gcc/msp430-elf/8.3.1/../../../../msp430-elf/lib/large/full-memory-range/libnosys.a(exit.o)
 .upper.data    0x0000000000000000        0x0 /opt/msp430-gcc/bin/../lib/gcc/msp430-elf/8.3.1/../../../../msp430-elf/lib/large/full-memory-range/libnosys.a(exit.o)
 .upper.bss     0x0000000000000000        0x0 /opt/msp430-gcc/bin/../lib/gcc/msp430-elf/8.3.1/../../../../msp430-elf/lib/large/full-memory-range/libnosys.a(exit.o)
 .either.text   0x0000000000000000        0x0 /opt/msp430-gcc/bin/../lib/gcc/msp430-elf/8.3.1/large/full-memory-range/crtend_no_eh.o
 .upper.data    0x0000000000000000        0x0 /opt/msp430-gcc/bin/../lib/gcc/msp430-elf/8.3.1/large/full-memory-range/crtend_no_eh.o
 .upper.bss     0x0000000000000000        0x0 /opt/msp430-gcc/bin/../lib/gcc/msp430-elf/8.3.1/large/full-memory-range/crtend_no_eh.o

Memory Configuration

Name             Origin             Length             Attributes
SFR              0x0000000000000000 0x0000000000000010
BSL              0x0000000000001000 0x0000000000000800
RAM              0x0000000000001c00 0x0000000000000800
INFOMEM          0x0000000000001800 0x0000000000000200
INFOA            0x0000000000001980 0x0000000000000080
INFOB            0x0000000000001900 0x0000000000000080
INFOC            0x0000000000001880 0x0000000000000080
INFOD            0x0000000000001800 0x0000000000000080
ROM              0x0000000000004400 0x000000000000bb80 xr
HIFRAM           0x0000000000010000 0x0000000000003fff xrw
JTAGSIGNATURE    0x000000000000ff80 0x0000000000000004
BSLSIGNATURE     0x000000000000ff84 0x0000000000000004
IPESIGNATURE     0x000000000000ff88 0x0000000000000008
VECT1            0x000000000000ff90 0x0000000000000002
VECT2            0x000000000000ff92 0x0000000000000002
VECT3            0x000000000000ff94 0x0000000000000002
VECT4            0x000000000000ff96 0x0000000000000002
VECT5            0x000000000000ff98 0x0000000000000002
VECT6            0x000000000000ff9a 0x0000000000000002
VECT7            0x000000000000ff9c 0x0000000000000002
VECT8            0x000000000000ff9e 0x0000000000000002
VECT9            0x000000000000ffa0 0x0000000000000002
VECT10           0x000000000000ffa2 0x0000000000000002
VECT11           0x000000000000ffa4 0x0000000000000002
VECT12           0x000000000000ffa6 0x0000000000000002
VECT13           0x000000000000ffa8 0x0000000000000002
VECT14           0x000000000000ffaa 0x0000000000000002
VECT15           0x000000000000ffac 0x0000000000000002
VECT16           0x000000000000ffae 0x0000000000000002
VECT17           0x000000000000ffb0 0x0000000000000002
VECT18           0x000000000000ffb2 0x0000000000000002
VECT19           0x000000000000ffb4 0x0000000000000002
VECT20           0x000000000000ffb6 0x0000000000000002
VECT21           0x000000000000ffb8 0x0000000000000002
VECT22           0x000000000000ffba 0x0000000000000002
VECT23           0x000000000000ffbc 0x0000000000000002
VECT24           0x000000000000ffbe 0x0000000000000002
VECT25           0x000000000000ffc0 0x0000000000000002
VECT26           0x000000000000ffc2 0x0000000000000002
VECT27           0x000000000000ffc4 0x0000000000000002
VECT28           0x000000000000ffc6 0x0000000000000002
VECT29           0x000000000000ffc8 0x0000000000000002
VECT30           0x000000000000ffca 0x0000000000000002
VECT31           0x000000000000ffcc 0x0000000000000002
VECT32           0x000000000000ffce 0x0000000000000002
VECT33           0x000000000000ffd0 0x0000000000000002
VECT34           0x000000000000ffd2 0x0000000000000002
VECT35           0x000000000000ffd4 0x0000000000000002
VECT36           0x000000000000ffd6 0x0000000000000002
VECT37           0x000000000000ffd8 0x0000000000000002
VECT38           0x000000000000ffda 0x0000000000000002
VECT39           0x000000000000ffdc 0x0000000000000002
VECT40           0x000000000000ffde 0x0000000000000002
VECT41           0x000000000000ffe0 0x0000000000000002
VECT42           0x000000000000ffe2 0x0000000000000002
VECT43           0x000000000000ffe4 0x0000000000000002
VECT44           0x000000000000ffe6 0x0000000000000002
VECT45           0x000000000000ffe8 0x0000000000000002
VECT46           0x000000000000ffea 0x0000000000000002
VECT47           0x000000000000ffec 0x0000000000000002
VECT48           0x000000000000ffee 0x0000000000000002
VECT49           0x000000000000fff0 0x0000000000000002
VECT50           0x000000000000fff2 0x0000000000000002
VECT51           0x000000000000fff4 0x0000000000000002
VECT52           0x000000000000fff6 0x0000000000000002
VECT53           0x000000000000fff8 0x0000000000000002
VECT54           0x000000000000fffa 0x0000000000000002
VECT55           0x000000000000fffc 0x0000000000000002
RESETVEC         0x000000000000fffe 0x0000000000000002
*default*        0x0000000000000000 0xffffffffffffffff

Linker script and memory map

LOAD /opt/msp430-gcc/bin/../lib/gcc/msp430-elf/8.3.1/../../../../msp430-elf/lib/large/full-memory-range/crt0.o
LOAD /opt/msp430-gcc/bin/../lib/gcc/msp430-elf/8.3.1/large/full-memory-range/crtbegin_no_eh.o
LOAD main.o
LOAD libmsp430_obc.a
LOAD /opt/msp430-gcc/bin/../lib/gcc/msp430-elf/8.3.1/large/full-memory-range/libgcc.a
START GROUP
LOAD /opt/msp430-gcc/bin/../lib/gcc/msp430-elf/8.3.1/large/full-memory-range/libmul_f5.a
LOAD /opt/msp430-gcc/bin/../lib/gcc/msp430-elf/8.3.1/../../../../msp430-elf/lib/large/full-memory-range/libc.a
LOAD /opt/msp430-gcc/bin/../lib/gcc/msp430-elf/8.3.1/large/full-memory-range/libgcc.a
LOAD /opt/msp430-gcc/bin/../lib/gcc/msp430-elf/8.3.1/../../../../msp430-elf/lib/large/full-memory-range/libcrt.a
LOAD /opt/msp430-gcc/bin/../lib/gcc/msp430-elf/8.3.1/../../../../msp430-elf/lib/large/full-memory-range/libnosys.a
END GROUP
LOAD /opt/msp430-gcc/bin/../lib/gcc/msp430-elf/8.3.1/large/full-memory-range/libgcc.a
LOAD /opt/msp430-gcc/bin/../lib/gcc/msp430-elf/8.3.1/large/full-memory-range/crtend_no_eh.o
LOAD /opt/msp430-gcc/bin/../lib/gcc/msp430-elf/8.3.1/large/full-memory-range/libgcc.a

.jtagsignature

.bslsignature

.ipe
 *(.ipesignature)
 *(.jtagpassword)

__interrupt_vector_1
 *(__interrupt_vector_1)

__interrupt_vector_2
 *(__interrupt_vector_2)

__interrupt_vector_3
 *(__interrupt_vector_3)

__interrupt_vector_4
 *(__interrupt_vector_4)

__interrupt_vector_5
 *(__interrupt_vector_5)

__interrupt_vector_6
 *(__interrupt_vector_6)

__interrupt_vector_7
 *(__interrupt_vector_7)

__interrupt_vector_8
 *(__interrupt_vector_8)

__interrupt_vector_9
 *(__interrupt_vector_9)

__interrupt_vector_10
 *(__interrupt_vector_10)

__interrupt_vector_11
 *(__interrupt_vector_11)

__interrupt_vector_12
 *(__interrupt_vector_12)

__interrupt_vector_13
 *(__interrupt_vector_13)

__interrupt_vector_14
 *(__interrupt_vector_14)

__interrupt_vector_15
 *(__interrupt_vector_15)

__interrupt_vector_16
 *(__interrupt_vector_16)

__interrupt_vector_17
 *(__interrupt_vector_17)

__interrupt_vector_18
 *(__interrupt_vector_18)

__interrupt_vector_19
 *(__interrupt_vector_19)

__interrupt_vector_20
 *(__interrupt_vector_20)

__interrupt_vector_21
 *(__interrupt_vector_21)

__interrupt_vector_22
 *(__interrupt_vector_22)

__interrupt_vector_23
 *(__interrupt_vector_23)

__interrupt_vector_24
 *(__interrupt_vector_24)

__interrupt_vector_25
 *(__interrupt_vector_25)

__interrupt_vector_26
 *(__interrupt_vector_26)

__interrupt_vector_27
 *(__interrupt_vector_27)

__interrupt_vector_28
 *(__interrupt_vector_28)

__interrupt_vector_29
 *(__interrupt_vector_29)

__interrupt_vector_30
 *(__interrupt_vector_30)

__interrupt_vector_31
 *(__interrupt_vector_31)
 *(__interrupt_vector_aes256)

__interrupt_vector_32
 *(__interrupt_vector_32)
 *(__interrupt_vector_rtc)

__interrupt_vector_33
 *(__interrupt_vector_33)
 *(__interrupt_vector_port4)

__interrupt_vector_34
 *(__interrupt_vector_34)
 *(__interrupt_vector_port3)

__interrupt_vector_35
 *(__interrupt_vector_35)
 *(__interrupt_vector_timer3_a1)

__interrupt_vector_36
 *(__interrupt_vector_36)
 *(__interrupt_vector_timer3_a0)

__interrupt_vector_37
 *(__interrupt_vector_37)
 *(__interrupt_vector_port2)

__interrupt_vector_38
 *(__interrupt_vector_38)
 *(__interrupt_vector_timer2_a1)

__interrupt_vector_39
 *(__interrupt_vector_39)
 *(__interrupt_vector_timer2_a0)

__interrupt_vector_40
 *(__interrupt_vector_40)
 *(__interrupt_vector_port1)

__interrupt_vector_41
 *(__interrupt_vector_41)
 *(__interrupt_vector_timer1_a1)

__interrupt_vector_42
 *(__interrupt_vector_42)
 *(__interrupt_vector_timer1_a0)

__interrupt_vector_43
 *(__interrupt_vector_43)
 *(__interrupt_vector_dma)

__interrupt_vector_44
 *(__interrupt_vector_44)
 *(__interrupt_vector_usci_a1)

__interrupt_vector_45
 *(__interrupt_vector_45)
 *(__interrupt_vector_timer0_a1)

__interrupt_vector_46
                0x000000000000ffea        0x2
 *(__interrupt_vector_46)
 __interrupt_vector_46
                0x000000000000ffea        0x2 libmsp430_obc.a(port.o)
 *(__interrupt_vector_timer0_a0)

__interrupt_vector_47
 *(__interrupt_vector_47)
 *(__interrupt_vector_adc12)

__interrupt_vector_48
 *(__interrupt_vector_48)
 *(__interrupt_vector_usci_b0)

__interrupt_vector_49
                0x000000000000fff0        0x2
 *(__interrupt_vector_49)
 __interrupt_vector_49
                0x000000000000fff0        0x2 libmsp430_obc.a(msp430_eusci_a_serial_minimal.o)
 *(__interrupt_vector_usci_a0)

__interrupt_vector_50
 *(__interrupt_vector_50)
 *(__interrupt_vector_wdt)

__interrupt_vector_51
 *(__interrupt_vector_51)
 *(__interrupt_vector_timer0_b1)

__interrupt_vector_52
 *(__interrupt_vector_52)
 *(__interrupt_vector_timer0_b0)

__interrupt_vector_53
 *(__interrupt_vector_53)
 *(__interrupt_vector_comp_e)

__interrupt_vector_54
 *(__interrupt_vector_54)
 *(__interrupt_vector_unmi)

__interrupt_vector_55
 *(__interrupt_vector_55)
 *(__interrupt_vector_sysnmi)

__reset_vector  0x000000000000fffe        0x2
 *(__interrupt_vector_56)
 *(__interrupt_vector_reset)
 *(.resetvec)
 .resetvec      0x000000000000fffe        0x2 /opt/msp430-gcc/bin/../lib/gcc/msp430-elf/8.3.1/../../../../msp430-elf/lib/large/full-memory-range/crt0.o

.lower.rodata   0x0000000000004400        0x0
                0x0000000000004400                . = ALIGN (0x2)
 *(.lower.rodata.* .lower.rodata)

.rodata         0x0000000000004400        0x0
                0x0000000000004400                . = ALIGN (0x2)
 *(.plt)
 *(.rodata .rodata.* .gnu.linkonce.r.* .const .const:*)
 *(.rodata1)
 *(.gcc_except_table)
 *(.gcc_except_table.*)

.rodata2        0x0000000000004400       0x4c
                0x0000000000004400                . = ALIGN (0x2)
                [!provide]                        PROVIDE (__preinit_array_start, .)
 *(.preinit_array)
                [!provide]                        PROVIDE (__preinit_array_end, .)
                0x0000000000004400                . = ALIGN (0x2)
                [!provide]                        PROVIDE (__init_array_start, .)
 *(SORT(.init_array.*))
 *(.init_array)
                [!provide]                        PROVIDE (__init_array_end, .)
                0x0000000000004400                . = ALIGN (0x2)
                [!provide]                        PROVIDE (__fini_array_start, .)
 *(.fini_array)
 *(SORT(.fini_array.*))
                [!provide]                        PROVIDE (__fini_array_end, .)
                0x0000000000004400                . = ALIGN (0x2)
 *(.eh_frame_hdr)
 *(.eh_frame)
 .eh_frame      0x0000000000004400       0x48 /opt/msp430-gcc/bin/../lib/gcc/msp430-elf/8.3.1/large/full-memory-range/libgcc.a(_udivdi3.o)
 .eh_frame      0x0000000000004448        0x4 /opt/msp430-gcc/bin/../lib/gcc/msp430-elf/8.3.1/large/full-memory-range/crtend_no_eh.o
 *crtbegin*.o(.ctors)
 *(EXCLUDE_FILE(*crtend*.o) .ctors)
 *(SORT(.ctors.*))
 *(.ctors)
 *crtbegin*.o(.dtors)
 *(EXCLUDE_FILE(*crtend*.o) .dtors)
 *(SORT(.dtors.*))
 *(.dtors)

.upper.rodata   0x0000000000010000      0x3eb
 *(.upper.rodata.* .upper.rodata)
 .upper.rodata  0x0000000000010000       0xce main.o
 .upper.rodata  0x00000000000100ce        0xe libmsp430_obc.a(msp430_eusci_a_serial_minimal.o)
 .upper.rodata  0x00000000000100dc        0x5 libmsp430_obc.a(tasks.o)
 .upper.rodata  0x00000000000100e1       0x28 libmsp430_obc.a(thread_state_handler_entrypoint_poll_aoi.o)
 .upper.rodata  0x0000000000010109       0x28 libmsp430_obc.a(thread_state_handler_entrypoint_poll_mcp.o)
 .upper.rodata  0x0000000000010131       0x2a libmsp430_obc.a(thread_state_handler_entrypoint_toggle_pwr.o)
 .upper.rodata  0x000000000001015b        0x8 libmsp430_obc.a(timers.o)
 .upper.rodata  0x0000000000010163      0x16e libmsp430_obc.a(State_Handler_Entrypoint.o)
 *fill*         0x00000000000102d1        0x1 
 .upper.rodata  0x00000000000102d2       0x4c libmsp430_obc.a(drivers_config.o)
                0x00000000000102d2                pohidrv_node_2_msp430_eusci_a_serial_minimal
                0x00000000000102f8                pohidrv_node_1_serial
 .upper.rodata  0x000000000001031e       0x2f libmsp430_obc.a(loc_provider.o)
 .upper.rodata  0x000000000001034d        0x2 /opt/msp430-gcc/bin/../lib/gcc/msp430-elf/8.3.1/../../../../msp430-elf/lib/large/full-memory-range/libc.a(lib_a-puts.o)
 *fill*         0x000000000001034f        0x1 
 .upper.rodata.__sf_fake_stderr
                0x0000000000010350       0x18 /opt/msp430-gcc/bin/../lib/gcc/msp430-elf/8.3.1/../../../../msp430-elf/lib/large/full-memory-range/libc.a(lib_a-findfp.o)
                0x0000000000010350                __sf_fake_stderr
 .upper.rodata.__sf_fake_stdout
                0x0000000000010368       0x18 /opt/msp430-gcc/bin/../lib/gcc/msp430-elf/8.3.1/../../../../msp430-elf/lib/large/full-memory-range/libc.a(lib_a-findfp.o)
                0x0000000000010368                __sf_fake_stdout
 .upper.rodata.__sf_fake_stdin
                0x0000000000010380       0x18 /opt/msp430-gcc/bin/../lib/gcc/msp430-elf/8.3.1/../../../../msp430-elf/lib/large/full-memory-range/libc.a(lib_a-findfp.o)
                0x0000000000010380                __sf_fake_stdin
 .upper.rodata._global_impure_ptr
                0x0000000000010398        0x4 /opt/msp430-gcc/bin/../lib/gcc/msp430-elf/8.3.1/../../../../msp430-elf/lib/large/full-memory-range/libc.a(lib_a-impure.o)
                0x0000000000010398                _global_impure_ptr
 .upper.rodata  0x000000000001039c        0x2 /opt/msp430-gcc/bin/../lib/gcc/msp430-elf/8.3.1/../../../../msp430-elf/lib/large/full-memory-range/libc.a(lib_a-impure.o)
 .upper.rodata  0x000000000001039e       0x11 /opt/msp430-gcc/bin/../lib/gcc/msp430-elf/8.3.1/../../../../msp430-elf/lib/large/full-memory-range/libc.a(lib_a-nano-vfprintf.o)
 .upper.rodata  0x00000000000103af       0x22 /opt/msp430-gcc/bin/../lib/gcc/msp430-elf/8.3.1/../../../../msp430-elf/lib/large/full-memory-range/libc.a(lib_a-nano-vfprintf_i.o)
 .upper.rodata  0x00000000000103d1       0x1a /opt/msp430-gcc/bin/../lib/gcc/msp430-elf/8.3.1/../../../../msp430-elf/lib/large/full-memory-range/libnosys.a(sbrk.o)

.persistent     0x000000000000444c     0x2288
                0x000000000000444c                . = ALIGN (0x2)
                [!provide]                        PROVIDE (__persistent_start, .)
 *(.persistent)
 .persistent    0x000000000000444c     0x2040 main.o
                0x00000000000048f0                state_handler_entrypoint_trig_pwr_Global_Queue
                0x0000000000004d98                state_handler_entrypoint_trig_mcp_Global_Queue
                0x0000000000005240                state_handler_entrypoint_trig_aoi_Global_Queue
                0x00000000000056d0                state_handler_entrypoint_toggle_pwr_Global_Queue
                0x0000000000005b60                state_handler_entrypoint_poll_mcp_Global_Queue
                0x0000000000005ff0                state_handler_entrypoint_poll_aoi_Global_Queue
                0x0000000000005ff4                prv_state_handler_entrypoint_Semaphore_Buffer
                0x0000000000006030                state_handler_entrypoint_Semaphore
                0x0000000000006034                prv_tm_provider_Semaphore_Buffer
                0x0000000000006070                tm_provider_Semaphore
                0x0000000000006074                prv_tc_validation_Semaphore_Buffer
                0x00000000000060b0                tc_validation_Semaphore
                0x00000000000060b4                prv_tc_provider_Semaphore_Buffer
                0x00000000000060f0                tc_provider_Semaphore
                0x00000000000060f4                prv_tm_collection_Semaphore_Buffer
                0x0000000000006130                tm_collection_Semaphore
                0x0000000000006134                prv_loc_provider_Semaphore_Buffer
                0x0000000000006170                loc_provider_Semaphore
                0x0000000000006174                xTimerTaskStack
                0x00000000000062c8                xTimerTaskTCB
                0x0000000000006300                xIdleTaskStack
                0x0000000000006454                xIdleTaskTCB
 .persistent    0x000000000000648c      0x18c libmsp430_obc.a(msp430_eusci_a_serial_minimal.o)
                0x000000000000648c                prv_msp430_eusci_a_serial_minimal_poller_tcb
                0x00000000000064c4                prv_msp430_eusci_a_serial_minimal_poller_stack
 .persistent    0x0000000000006618       0x2a libmsp430_obc.a(thread_state_handler_entrypoint_poll_aoi.o)
                0x0000000000006618                prv_state_handler_entrypoint_poll_aoi_Timer
                0x000000000000661c                prv_state_handler_entrypoint_poll_aoi_Timer_Buffer
 .persistent    0x0000000000006642       0x2a libmsp430_obc.a(thread_state_handler_entrypoint_poll_mcp.o)
                0x0000000000006642                prv_state_handler_entrypoint_poll_mcp_Timer
                0x0000000000006646                prv_state_handler_entrypoint_poll_mcp_Timer_Buffer
 .persistent    0x000000000000666c       0x2a libmsp430_obc.a(thread_state_handler_entrypoint_toggle_pwr.o)
                0x000000000000666c                prv_state_handler_entrypoint_toggle_pwr_Timer
                0x0000000000006670                prv_state_handler_entrypoint_toggle_pwr_Timer_Buffer
 .persistent    0x0000000000006696        0x4 libmsp430_obc.a(transport.o)
 .persistent    0x000000000000669a       0x3a libmsp430_obc.a(State_Handler_Entrypoint.o)
                0x000000000000669a                state_handler_entrypoint_context
                0x00000000000066d4                . = ALIGN (0x2)
                [!provide]                        PROVIDE (__persistent_end, .)

.lower.data     0x0000000000001c00        0x0 load address 0x00000000000066d4
                0x0000000000001c00                . = ALIGN (0x2)
                0x0000000000001c00                PROVIDE (__datastart, .)
 *(.lower.data.* .lower.data)

.data           0x0000000000001c00        0x0 load address 0x00000000000066d4
                0x0000000000001c00                . = ALIGN (0x2)
 *(.jcr)
 *(.data.rel.ro.local)
 *(.data.rel.ro*)
 *(.dynamic)
 *(.data .data.* .gnu.linkonce.d.*)
 *(.gnu.linkonce.d.*personality*)
 *(.data1)
 *(.got.plt)
 *(.got)
                0x0000000000001c00                . = ALIGN (0x2)
 *(.sdata .sdata.* .gnu.linkonce.s.* D_2 D_1)
                0x0000000000001c00                . = ALIGN (0x2)
                0x0000000000001c00                _edata = .
                [!provide]                        PROVIDE (edata, .)
                [!provide]                        PROVIDE (__dataend, .)
                0x00000000000066d4                PROVIDE (__romdatastart, LOADADDR (.lower.data))
                0x0000000000000000                PROVIDE (__romdatacopysize, (SIZEOF (.lower.data) + SIZEOF (.data)))

.upper.data     0x00000000000103ec      0x15d load address 0x00000000000066d4
                0x00000000000066d4                __upper_data_init = LOADADDR (.upper.data)
                0x00000000000103ec        0x2 SHORT 0x1
                0x00000000000103ee                __high_datastart = .
 *(.upper.data.* .upper.data)
 .upper.data    0x00000000000103ee        0x2 libmsp430_obc.a(port.o)
                0x00000000000103ee                usCriticalNesting
 .upper.data._impure_ptr
                0x00000000000103f0        0x4 /opt/msp430-gcc/bin/../lib/gcc/msp430-elf/8.3.1/../../../../msp430-elf/lib/large/full-memory-range/libc.a(lib_a-impure.o)
                0x00000000000103f0                _impure_ptr
 .upper.data.impure_data
                0x00000000000103f4       0xe0 /opt/msp430-gcc/bin/../lib/gcc/msp430-elf/8.3.1/../../../../msp430-elf/lib/large/full-memory-range/libc.a(lib_a-impure.o)
 .upper.data.lc_ctype_charset
                0x00000000000104d4       0x20 /opt/msp430-gcc/bin/../lib/gcc/msp430-elf/8.3.1/../../../../msp430-elf/lib/large/full-memory-range/libc.a(lib_a-locale.o)
 .upper.data.__mb_cur_max
                0x00000000000104f4        0x2 /opt/msp430-gcc/bin/../lib/gcc/msp430-elf/8.3.1/../../../../msp430-elf/lib/large/full-memory-range/libc.a(lib_a-locale.o)
                0x00000000000104f4                __mb_cur_max
 .upper.data.__wctomb
                0x00000000000104f6        0x4 /opt/msp430-gcc/bin/../lib/gcc/msp430-elf/8.3.1/../../../../msp430-elf/lib/large/full-memory-range/libc.a(lib_a-wctomb_r.o)
                0x00000000000104f6                __wctomb
 .upper.data.heap.1463
                0x00000000000104fa        0x4 /opt/msp430-gcc/bin/../lib/gcc/msp430-elf/8.3.1/../../../../msp430-elf/lib/large/full-memory-range/libnosys.a(sbrk.o)
 .upper.data    0x00000000000104fe       0x4b /opt/msp430-gcc/bin/../lib/gcc/msp430-elf/8.3.1/../../../../msp430-elf/lib/large/full-memory-range/libnosys.a(cio.o)
                0x00000000000104fe                __CIOBUF__
                0x00000000000104fe                _CIOBUF_
                0x0000000000010549                __high_dataend = .
                0x000000000000015b                __rom_highdatacopysize = (SIZEOF (.upper.data) - 0x2)
                0x00000000000066d6                __rom_highdatastart = (LOADADDR (.upper.data) + 0x2)

.lower.bss      0x0000000000001c00        0x0
                0x0000000000001c00                . = ALIGN (0x2)
                0x0000000000001c00                PROVIDE (__bssstart, .)
 *(.lower.bss.* .lower.bss)

.bss            0x0000000000001c00        0x2
                0x0000000000001c00                . = ALIGN (0x2)
 *(.dynbss)
 *(.sbss .sbss.*)
 *(.bss .bss.* .gnu.linkonce.b.*)
                0x0000000000001c00                . = ALIGN (0x2)
 *(COMMON)
 COMMON         0x0000000000001c00        0x2 /opt/msp430-gcc/bin/../lib/gcc/msp430-elf/8.3.1/../../../../msp430-elf/lib/large/full-memory-range/libc.a(lib_a-reent.o)
                0x0000000000001c00                errno
                [!provide]                        PROVIDE (__bssend, .)
                0x0000000000000002                PROVIDE (__bsssize, (SIZEOF (.lower.bss) + SIZEOF (.bss)))

.upper.bss      0x000000000001054a      0x246
                0x000000000001054a                . = ALIGN (0x2)
                0x000000000001054a                __high_bssstart = .
 *(.upper.bss.* .upper.bss)
 .upper.bss     0x000000000001054a        0x2 libmsp430_obc.a(loc_provider_vm_if.o)
                0x000000000001054a                loc_provider_initialized
 .upper.bss     0x000000000001054c       0xf8 libmsp430_obc.a(msp430_eusci_a_serial_minimal.o)
 .upper.bss     0x0000000000010644        0x2 libmsp430_obc.a(state_handler_entrypoint_vm_if.o)
                0x0000000000010644                state_handler_entrypoint_initialized
 .upper.bss     0x0000000000010646       0xb0 libmsp430_obc.a(tasks.o)
 .upper.bss     0x00000000000106f6        0x4 libmsp430_obc.a(tasks.o)
                0x00000000000106f6                pxCurrentTCB
 .upper.bss     0x00000000000106fa        0x2 libmsp430_obc.a(tc_provider_vm_if.o)
                0x00000000000106fa                tc_provider_initialized
 .upper.bss     0x00000000000106fc        0x2 libmsp430_obc.a(tc_validation_vm_if.o)
                0x00000000000106fc                tc_validation_initialized
 .upper.bss     0x00000000000106fe       0x7e libmsp430_obc.a(timers.o)
 .upper.bss     0x000000000001077c        0x2 libmsp430_obc.a(tm_collection_vm_if.o)
                0x000000000001077c                tm_collection_initialized
 .upper.bss     0x000000000001077e        0x2 libmsp430_obc.a(tm_provider_vm_if.o)
                0x000000000001077e                tm_provider_initialized
 .upper.bss     0x0000000000010780        0x4 libmsp430_obc.a(loc_provider.o)
 .upper.bss     0x0000000000010784        0x4 libmsp430_obc.a(tc_provider.o)
 .upper.bss.__malloc_sbrk_start
                0x0000000000010788        0x4 /opt/msp430-gcc/bin/../lib/gcc/msp430-elf/8.3.1/../../../../msp430-elf/lib/large/full-memory-range/libc.a(lib_a-nano-mallocr.o)
                0x0000000000010788                __malloc_sbrk_start
 .upper.bss.__malloc_free_list
                0x000000000001078c        0x4 /opt/msp430-gcc/bin/../lib/gcc/msp430-elf/8.3.1/../../../../msp430-elf/lib/large/full-memory-range/libc.a(lib_a-nano-mallocr.o)
                0x000000000001078c                __malloc_free_list
                0x0000000000010790                . = ALIGN (0x2)
                0x0000000000010790                __high_bssend = .
                0x0000000000000246                __high_bsssize = SIZEOF (.upper.bss)

.noinit         0x0000000000001c02        0x0
                0x0000000000001c02                . = ALIGN (0x2)
                [!provide]                        PROVIDE (__noinit_start, .)
 *(.noinit)
                0x0000000000001c02                . = ALIGN (0x2)
                [!provide]                        PROVIDE (__noinit_end, .)

.heap           0x0000000000001c02        0x4
                0x0000000000001c02                . = ALIGN (0x2)
                0x0000000000001c02                __heap_start__ = .
                0x0000000000001c02                _end = __heap_start__
                0x0000000000001c02                PROVIDE (end, .)
 *(.heap)
                0x0000000000001c02                _end = .
                [!provide]                        PROVIDE (end, .)
                0x0000000000001c02        0x4 LONG 0x0
                0x0000000000001c06                __heap_end__ = .
                0x0000000000001c06                __HeapLimit = __heap_end__

.stack          0x0000000000002400        0x0
                0x0000000000002400                PROVIDE (__stack, .)
 *(.stack)

.lower.text     0x0000000000006832     0x52dc
                0x0000000000006832                . = ALIGN (0x2)
 *(.lower.text.* .lower.text)
 .either.text.vApplicationStackOverflowHook
                0x0000000000006832        0xa main.o
                0x0000000000006832                vApplicationStackOverflowHook
 .either.text.vApplicationSetupTimerInterrupt
                0x000000000000683c       0x34 main.o
                0x000000000000683c                vApplicationSetupTimerInterrupt
 .either.text.vApplicationGetIdleTaskMemory
                0x0000000000006870       0x1c main.o
                0x0000000000006870                vApplicationGetIdleTaskMemory
 .either.text.vApplicationGetTimerTaskMemory
                0x000000000000688c       0x1c main.o
                0x000000000000688c                vApplicationGetTimerTaskMemory
 .either.text.startup.main
                0x00000000000068a8      0x23e main.o
                0x00000000000068a8                main
 .either.text.init_loc_provider
                0x0000000000006ae6       0x1a libmsp430_obc.a(loc_provider_vm_if.o)
                0x0000000000006ae6                init_loc_provider
 .either.text.loc_provider_request_loc
                0x0000000000006b00        0x6 libmsp430_obc.a(loc_provider_vm_if.o)
                0x0000000000006b00                loc_provider_request_loc
 .either.text.uart_setup_baudrate.part.3
                0x0000000000006b06       0x1a libmsp430_obc.a(msp430_eusci_a_serial_minimal.o)
 .either.text.uart_putc
                0x0000000000006b20       0x32 libmsp430_obc.a(msp430_eusci_a_serial_minimal.o)
 .either.text.msp430_eusci_a_serial_minimal_sender
                0x0000000000006b52       0xd8 libmsp430_obc.a(msp430_eusci_a_serial_minimal.o)
                0x0000000000006b52                msp430_eusci_a_serial_minimal_sender
 .either.text.process_packet
                0x0000000000006c2a       0x5c libmsp430_obc.a(msp430_eusci_a_serial_minimal.o)
                0x0000000000006c2a                process_packet
 .either.text.msp430_eusci_a_serial_minimal_poller
                0x0000000000006c86       0xc2 libmsp430_obc.a(msp430_eusci_a_serial_minimal.o)
                0x0000000000006c86                msp430_eusci_a_serial_minimal_poller
 .either.text.msp430_eusci_a_serial_minimal_init
                0x0000000000006d48      0x1e8 libmsp430_obc.a(msp430_eusci_a_serial_minimal.o)
                0x0000000000006d48                msp430_eusci_a_serial_minimal_init
 .either.text.pxPortInitialiseStack
                0x0000000000006f30       0x3a libmsp430_obc.a(port.o)
                0x0000000000006f30                pxPortInitialiseStack
 .either.text.xPortStartScheduler
                0x0000000000006f6a       0x24 libmsp430_obc.a(port.o)
                0x0000000000006f6a                xPortStartScheduler
 .either.text.vPortYield
                0x0000000000006f8e       0x3e libmsp430_obc.a(port.o)
                0x0000000000006f8e                vPortYield
 .either.text.vPortPreemptiveTickISR
                0x0000000000006fcc       0x42 libmsp430_obc.a(port.o)
                0x0000000000006fcc                vPortPreemptiveTickISR
 .either.text.prvCopyDataToQueue
                0x000000000000700e       0xaa libmsp430_obc.a(queue.o)
 .either.text.prvCopyDataFromQueue
                0x00000000000070b8       0x38 libmsp430_obc.a(queue.o)
 .either.text.prvUnlockQueue
                0x00000000000070f0       0xd8 libmsp430_obc.a(queue.o)
 .either.text.prvIsQueueEmpty
                0x00000000000071c8       0x3a libmsp430_obc.a(queue.o)
 .either.text.xQueueGenericReset
                0x0000000000007202       0xb0 libmsp430_obc.a(queue.o)
                0x0000000000007202                xQueueGenericReset
 .either.text.xQueueGenericCreateStatic
                0x00000000000072b2       0x92 libmsp430_obc.a(queue.o)
                0x00000000000072b2                xQueueGenericCreateStatic
 .either.text.xQueueGenericSend
                0x0000000000007344      0x214 libmsp430_obc.a(queue.o)
                0x0000000000007344                xQueueGenericSend
 .either.text.xQueueCreateMutexStatic
                0x0000000000007558       0x46 libmsp430_obc.a(queue.o)
                0x0000000000007558                xQueueCreateMutexStatic
 .either.text.xQueueGenericSendFromISR
                0x000000000000759e       0x9a libmsp430_obc.a(queue.o)
                0x000000000000759e                xQueueGenericSendFromISR
 .either.text.xQueueGiveFromISR
                0x0000000000007638       0x90 libmsp430_obc.a(queue.o)
                0x0000000000007638                xQueueGiveFromISR
 .either.text.xQueueReceive
                0x00000000000076c8      0x1d4 libmsp430_obc.a(queue.o)
                0x00000000000076c8                xQueueReceive
 .either.text.xQueueSemaphoreTake
                0x000000000000789c      0x276 libmsp430_obc.a(queue.o)
                0x000000000000789c                xQueueSemaphoreTake
 .either.text.vQueueWaitForMessageRestricted
                0x0000000000007b12       0x64 libmsp430_obc.a(queue.o)
                0x0000000000007b12                vQueueWaitForMessageRestricted
 .either.text.init_state_handler_entrypoint
                0x0000000000007b76       0x4a libmsp430_obc.a(state_handler_entrypoint_vm_if.o)
                0x0000000000007b76                init_state_handler_entrypoint
 .either.text.state_handler_entrypoint_poll_aoi
                0x0000000000007bc0        0x6 libmsp430_obc.a(state_handler_entrypoint_vm_if.o)
                0x0000000000007bc0                state_handler_entrypoint_poll_aoi
 .either.text.state_handler_entrypoint_poll_mcp
                0x0000000000007bc6        0x6 libmsp430_obc.a(state_handler_entrypoint_vm_if.o)
                0x0000000000007bc6                state_handler_entrypoint_poll_mcp
 .either.text.state_handler_entrypoint_toggle_pwr
                0x0000000000007bcc        0x6 libmsp430_obc.a(state_handler_entrypoint_vm_if.o)
                0x0000000000007bcc                state_handler_entrypoint_toggle_pwr
 .either.text.state_handler_entrypoint_trig_aoi
                0x0000000000007bd2        0x6 libmsp430_obc.a(state_handler_entrypoint_vm_if.o)
                0x0000000000007bd2                state_handler_entrypoint_trig_aoi
 .either.text.state_handler_entrypoint_trig_mcp
                0x0000000000007bd8        0x6 libmsp430_obc.a(state_handler_entrypoint_vm_if.o)
                0x0000000000007bd8                state_handler_entrypoint_trig_mcp
 .either.text.state_handler_entrypoint_trig_pwr
                0x0000000000007bde        0x6 libmsp430_obc.a(state_handler_entrypoint_vm_if.o)
                0x0000000000007bde                state_handler_entrypoint_trig_pwr
 .either.text.prvIdleTask
                0x0000000000007be4       0x1a libmsp430_obc.a(tasks.o)
 .either.text.prvResetNextTaskUnblockTime
                0x0000000000007bfe       0x3c libmsp430_obc.a(tasks.o)
 .either.text.prvAddCurrentTaskToDelayedList.isra.2
                0x0000000000007c3a       0x8a libmsp430_obc.a(tasks.o)
 .either.text.xTaskCreateStatic
                0x0000000000007cc4      0x21a libmsp430_obc.a(tasks.o)
                0x0000000000007cc4                xTaskCreateStatic
 .either.text.vTaskStartScheduler
                0x0000000000007ede       0x9e libmsp430_obc.a(tasks.o)
                0x0000000000007ede                vTaskStartScheduler
 .either.text.vTaskSuspendAll
                0x0000000000007f7c        0x8 libmsp430_obc.a(tasks.o)
                0x0000000000007f7c                vTaskSuspendAll
 .either.text.xTaskGetTickCount
                0x0000000000007f84       0x3a libmsp430_obc.a(tasks.o)
                0x0000000000007f84                xTaskGetTickCount
 .either.text.xTaskIncrementTick
                0x0000000000007fbe      0x198 libmsp430_obc.a(tasks.o)
                0x0000000000007fbe                xTaskIncrementTick
 .either.text.xTaskResumeAll
                0x0000000000008156      0x12c libmsp430_obc.a(tasks.o)
                0x0000000000008156                xTaskResumeAll
 .either.text.vTaskSwitchContext
                0x0000000000008282      0x11e libmsp430_obc.a(tasks.o)
                0x0000000000008282                vTaskSwitchContext
 .either.text.vTaskPlaceOnEventList
                0x00000000000083a0       0x2e libmsp430_obc.a(tasks.o)
                0x00000000000083a0                vTaskPlaceOnEventList
 .either.text.vTaskPlaceOnEventListRestricted
                0x00000000000083ce       0x38 libmsp430_obc.a(tasks.o)
                0x00000000000083ce                vTaskPlaceOnEventListRestricted
 .either.text.xTaskRemoveFromEventList
                0x0000000000008406       0xae libmsp430_obc.a(tasks.o)
                0x0000000000008406                xTaskRemoveFromEventList
 .either.text.vTaskInternalSetTimeOutState
                0x00000000000084b4       0x1e libmsp430_obc.a(tasks.o)
                0x00000000000084b4                vTaskInternalSetTimeOutState
 .either.text.xTaskCheckForTimeOut
                0x00000000000084d2       0xc4 libmsp430_obc.a(tasks.o)
                0x00000000000084d2                xTaskCheckForTimeOut
 .either.text.vTaskMissedYield
                0x0000000000008596        0x8 libmsp430_obc.a(tasks.o)
                0x0000000000008596                vTaskMissedYield
 .either.text.xTaskGetSchedulerState
                0x000000000000859e       0x24 libmsp430_obc.a(tasks.o)
                0x000000000000859e                xTaskGetSchedulerState
 .either.text.xTaskPriorityInherit
                0x00000000000085c2       0xdc libmsp430_obc.a(tasks.o)
                0x00000000000085c2                xTaskPriorityInherit
 .either.text.xTaskPriorityDisinherit
                0x000000000000869e       0xb0 libmsp430_obc.a(tasks.o)
                0x000000000000869e                xTaskPriorityDisinherit
 .either.text.vTaskPriorityDisinheritAfterTimeout
                0x000000000000874e       0xd8 libmsp430_obc.a(tasks.o)
                0x000000000000874e                vTaskPriorityDisinheritAfterTimeout
 .either.text.pvTaskIncrementMutexHeldCount
                0x0000000000008826       0x18 libmsp430_obc.a(tasks.o)
                0x0000000000008826                pvTaskIncrementMutexHeldCount
 .either.text.init_tc_provider
                0x000000000000883e       0x1a libmsp430_obc.a(tc_provider_vm_if.o)
                0x000000000000883e                init_tc_provider
 .either.text.tc_provider_request_tc
                0x0000000000008858        0x6 libmsp430_obc.a(tc_provider_vm_if.o)
                0x0000000000008858                tc_provider_request_tc
 .either.text.init_tc_validation
                0x000000000000885e       0x1a libmsp430_obc.a(tc_validation_vm_if.o)
                0x000000000000885e                init_tc_validation
 .either.text.prv_state_handler_entrypoint_poll_aoi_Timer_Callback
                0x0000000000008878       0x28 libmsp430_obc.a(thread_state_handler_entrypoint_poll_aoi.o)
                0x0000000000008878                prv_state_handler_entrypoint_poll_aoi_Timer_Callback
 .either.text.prv_state_handler_entrypoint_poll_aoi_Task
                0x00000000000088a0       0x7a libmsp430_obc.a(thread_state_handler_entrypoint_poll_aoi.o)
                0x00000000000088a0                prv_state_handler_entrypoint_poll_aoi_Task
 .either.text.prv_state_handler_entrypoint_poll_mcp_Timer_Callback
                0x000000000000891a       0x28 libmsp430_obc.a(thread_state_handler_entrypoint_poll_mcp.o)
                0x000000000000891a                prv_state_handler_entrypoint_poll_mcp_Timer_Callback
 .either.text.prv_state_handler_entrypoint_poll_mcp_Task
                0x0000000000008942       0x7a libmsp430_obc.a(thread_state_handler_entrypoint_poll_mcp.o)
                0x0000000000008942                prv_state_handler_entrypoint_poll_mcp_Task
 .either.text.prv_state_handler_entrypoint_toggle_pwr_Timer_Callback
                0x00000000000089bc       0x28 libmsp430_obc.a(thread_state_handler_entrypoint_toggle_pwr.o)
                0x00000000000089bc                prv_state_handler_entrypoint_toggle_pwr_Timer_Callback
 .either.text.prv_state_handler_entrypoint_toggle_pwr_Task
                0x00000000000089e4       0x7a libmsp430_obc.a(thread_state_handler_entrypoint_toggle_pwr.o)
                0x00000000000089e4                prv_state_handler_entrypoint_toggle_pwr_Task
 .either.text.prv_state_handler_entrypoint_trig_aoi_Task
                0x0000000000008a5e       0x2a libmsp430_obc.a(thread_state_handler_entrypoint_trig_aoi.o)
                0x0000000000008a5e                prv_state_handler_entrypoint_trig_aoi_Task
 .either.text.prv_state_handler_entrypoint_trig_mcp_Task
                0x0000000000008a88       0x2a libmsp430_obc.a(thread_state_handler_entrypoint_trig_mcp.o)
                0x0000000000008a88                prv_state_handler_entrypoint_trig_mcp_Task
 .either.text.prv_state_handler_entrypoint_trig_pwr_Task
                0x0000000000008ab2       0x2a libmsp430_obc.a(thread_state_handler_entrypoint_trig_pwr.o)
                0x0000000000008ab2                prv_state_handler_entrypoint_trig_pwr_Task
 .either.text.prvInsertTimerInActiveList
                0x0000000000008adc       0x9a libmsp430_obc.a(timers.o)
 .either.text.prvCheckForValidListAndQueue
                0x0000000000008b76       0x80 libmsp430_obc.a(timers.o)
 .either.text.xTimerCreateTimerTask
                0x0000000000008bf6       0x7a libmsp430_obc.a(timers.o)
                0x0000000000008bf6                xTimerCreateTimerTask
 .either.text.xTimerCreateStatic
                0x0000000000008c70       0x90 libmsp430_obc.a(timers.o)
                0x0000000000008c70                xTimerCreateStatic
 .either.text.xTimerGenericCommand
                0x0000000000008d00       0x8e libmsp430_obc.a(timers.o)
                0x0000000000008d00                xTimerGenericCommand
 .either.text.prvSwitchTimerLists
                0x0000000000008d8e       0xb2 libmsp430_obc.a(timers.o)
 .either.text.prvTimerTask
                0x0000000000008e40      0x29c libmsp430_obc.a(timers.o)
 .either.text.init_tm_collection
                0x00000000000090dc       0x26 libmsp430_obc.a(tm_collection_vm_if.o)
                0x00000000000090dc                init_tm_collection
 .either.text.init_tm_provider
                0x0000000000009102       0x1a libmsp430_obc.a(tm_provider_vm_if.o)
                0x0000000000009102                init_tm_provider
 .either.text.register_remote_transport_func
                0x000000000000911c        0x6 libmsp430_obc.a(transport.o)
                0x000000000000911c                register_remote_transport_func
 .either.text.process_incomming_message
                0x0000000000009122       0xb0 libmsp430_obc.a(transport.o)
                0x0000000000009122                process_incomming_message
 .either.text.deliver_to_gui_send_tm_aoi
                0x00000000000091d2       0x26 libmsp430_obc.a(transport.o)
                0x00000000000091d2                deliver_to_gui_send_tm_aoi
 .either.text.deliver_to_gui_send_tm_mcp
                0x00000000000091f8       0x26 libmsp430_obc.a(transport.o)
                0x00000000000091f8                deliver_to_gui_send_tm_mcp
 .either.text.runTransitionState_Handler_Entrypoint.part.0
                0x000000000000921e      0x3a4 libmsp430_obc.a(State_Handler_Entrypoint.o)
 .either.text.CInitState_Handler_Entrypoint
                0x00000000000095c2        0x8 libmsp430_obc.a(State_Handler_Entrypoint.o)
                0x00000000000095c2                CInitState_Handler_Entrypoint
 .either.text.state_handler_entrypoint_PI_poll_aoi
                0x00000000000095ca       0x10 libmsp430_obc.a(State_Handler_Entrypoint.o)
                0x00000000000095ca                state_handler_entrypoint_PI_poll_aoi
 .either.text.state_handler_entrypoint_PI_poll_mcp
                0x00000000000095da       0x10 libmsp430_obc.a(State_Handler_Entrypoint.o)
                0x00000000000095da                state_handler_entrypoint_PI_poll_mcp
 .either.text.state_handler_entrypoint_PI_toggle_pwr
                0x00000000000095ea       0x24 libmsp430_obc.a(State_Handler_Entrypoint.o)
                0x00000000000095ea                state_handler_entrypoint_PI_toggle_pwr
 .either.text.state_handler_entrypoint_PI_trig_aoi
                0x000000000000960e        0x6 libmsp430_obc.a(State_Handler_Entrypoint.o)
                0x000000000000960e                state_handler_entrypoint_PI_trig_aoi
 .either.text.state_handler_entrypoint_PI_trig_mcp
                0x0000000000009614        0x6 libmsp430_obc.a(State_Handler_Entrypoint.o)
                0x0000000000009614                state_handler_entrypoint_PI_trig_mcp
 .either.text.state_handler_entrypoint_PI_trig_pwr
                0x000000000000961a       0x22 libmsp430_obc.a(State_Handler_Entrypoint.o)
                0x000000000000961a                state_handler_entrypoint_PI_trig_pwr
 .either.text.vListInitialise
                0x000000000000963c       0x20 libmsp430_obc.a(list.o)
                0x000000000000963c                vListInitialise
 .either.text.vListInitialiseItem
                0x000000000000965c        0x8 libmsp430_obc.a(list.o)
                0x000000000000965c                vListInitialiseItem
 .either.text.vListInsertEnd
                0x0000000000009664       0x2c libmsp430_obc.a(list.o)
                0x0000000000009664                vListInsertEnd
 .either.text.vListInsert
                0x0000000000009690       0x58 libmsp430_obc.a(list.o)
                0x0000000000009690                vListInsert
 .either.text.uxListRemove
                0x00000000000096e8       0x36 libmsp430_obc.a(list.o)
                0x00000000000096e8                uxListRemove
 .either.text.loc_provider_startup
                0x000000000000971e        0xa libmsp430_obc.a(loc_provider.o)
                0x000000000000971e                loc_provider_startup
 .either.text.loc_provider_PI_request_loc
                0x0000000000009728       0x4c libmsp430_obc.a(loc_provider.o)
                0x0000000000009728                loc_provider_PI_request_loc
 .either.text.vm_state_handler_entrypoint_request_loc
                0x0000000000009774        0x6 libmsp430_obc.a(msp430_obc_interface.o)
                0x0000000000009774                vm_state_handler_entrypoint_request_loc
 .either.text.vm_state_handler_entrypoint_request_tc
                0x000000000000977a        0x6 libmsp430_obc.a(msp430_obc_interface.o)
                0x000000000000977a                vm_state_handler_entrypoint_request_tc
 .either.text.vm_state_handler_entrypoint_send_tm_aoi
                0x0000000000009780       0x46 libmsp430_obc.a(msp430_obc_interface.o)
                0x0000000000009780                vm_state_handler_entrypoint_send_tm_aoi
 .either.text.vm_state_handler_entrypoint_send_tm_mcp
                0x00000000000097c6       0x46 libmsp430_obc.a(msp430_obc_interface.o)
                0x00000000000097c6                vm_state_handler_entrypoint_send_tm_mcp
 .either.text.call_state_handler_entrypoint_poll_aoi
                0x000000000000980c       0x3a libmsp430_obc.a(msp430_obc_interface.o)
                0x000000000000980c                call_state_handler_entrypoint_poll_aoi
 .either.text.call_state_handler_entrypoint_poll_mcp
                0x0000000000009846       0x3a libmsp430_obc.a(msp430_obc_interface.o)
                0x0000000000009846                call_state_handler_entrypoint_poll_mcp
 .either.text.call_state_handler_entrypoint_toggle_pwr
                0x0000000000009880       0x3a libmsp430_obc.a(msp430_obc_interface.o)
                0x0000000000009880                call_state_handler_entrypoint_toggle_pwr
 .either.text.call_state_handler_entrypoint_trig_aoi
                0x00000000000098ba       0x3a libmsp430_obc.a(msp430_obc_interface.o)
                0x00000000000098ba                call_state_handler_entrypoint_trig_aoi
 .either.text.call_state_handler_entrypoint_trig_mcp
                0x00000000000098f4       0x3a libmsp430_obc.a(msp430_obc_interface.o)
                0x00000000000098f4                call_state_handler_entrypoint_trig_mcp
 .either.text.call_state_handler_entrypoint_trig_pwr
                0x000000000000992e       0x3a libmsp430_obc.a(msp430_obc_interface.o)
                0x000000000000992e                call_state_handler_entrypoint_trig_pwr
 .either.text.state_handler_entrypoint_RI_request_loc
                0x0000000000009968       0x16 libmsp430_obc.a(state_handler_entrypoint_invoke_ri.o)
                0x0000000000009968                state_handler_entrypoint_RI_request_loc
 .either.text.state_handler_entrypoint_RI_request_tc
                0x000000000000997e       0x16 libmsp430_obc.a(state_handler_entrypoint_invoke_ri.o)
                0x000000000000997e                state_handler_entrypoint_RI_request_tc
 .either.text.state_handler_entrypoint_RI_send_tm_aoi
                0x0000000000009994        0xa libmsp430_obc.a(state_handler_entrypoint_invoke_ri.o)
                0x0000000000009994                state_handler_entrypoint_RI_send_tm_aoi
 .either.text.state_handler_entrypoint_RI_send_tm_mcp
                0x000000000000999e        0xa libmsp430_obc.a(state_handler_entrypoint_invoke_ri.o)
                0x000000000000999e                state_handler_entrypoint_RI_send_tm_mcp
 .either.text.tc_provider_startup
                0x00000000000099a8        0x2 libmsp430_obc.a(tc_provider.o)
                0x00000000000099a8                tc_provider_startup
 .either.text.tc_provider_PI_request_tc
                0x00000000000099aa       0x28 libmsp430_obc.a(tc_provider.o)
                0x00000000000099aa                tc_provider_PI_request_tc
 .either.text.tc_validation_startup
                0x00000000000099d2        0x2 libmsp430_obc.a(tc_validation.o)
                0x00000000000099d2                tc_validation_startup
 .either.text.tm_collection_startup
                0x00000000000099d4        0x2 libmsp430_obc.a(tm_collection.o)
                0x00000000000099d4                tm_collection_startup
 .either.text.tm_provider_startup
                0x00000000000099d6        0x2 libmsp430_obc.a(tm_provider.o)
                0x00000000000099d6                tm_provider_startup
 .either.text.udivmodsi4
                0x00000000000099d8       0x86 /opt/msp430-gcc/bin/../lib/gcc/msp430-elf/8.3.1/large/full-memory-range/libgcc.a(lib2divSI.o)
                0x00000000000099d8                udivmodsi4
 .either.text.__udivsi3
                0x0000000000009a5e       0x12 /opt/msp430-gcc/bin/../lib/gcc/msp430-elf/8.3.1/large/full-memory-range/libgcc.a(lib2divSI.o)
                0x0000000000009a5e                __mspabi_divul
                0x0000000000009a5e                __mspabi_divlu
 .either.text.__umodsi3
                0x0000000000009a70       0x12 /opt/msp430-gcc/bin/../lib/gcc/msp430-elf/8.3.1/large/full-memory-range/libgcc.a(lib2divSI.o)
                0x0000000000009a70                __mspabi_remul
 .either.text.__mspabi_slli
                0x0000000000009a82        0xa /opt/msp430-gcc/bin/../lib/gcc/msp430-elf/8.3.1/large/full-memory-range/libgcc.a(slli.o)
                0x0000000000009a86                __mspabi_slli
 .either.text.__mspabi_slll
                0x0000000000009a8c        0xc /opt/msp430-gcc/bin/../lib/gcc/msp430-elf/8.3.1/large/full-memory-range/libgcc.a(slli.o)
                0x0000000000009a92                __mspabi_slll
 .either.text.__mulhi2_f5
                0x0000000000009a98       0x16 /opt/msp430-gcc/bin/../lib/gcc/msp430-elf/8.3.1/large/full-memory-range/libmul_f5.a(lib2hw_mul_f5.o)
                0x0000000000009a98                __mulhi2_f5
                0x0000000000009a98                __mspabi_mpyi_f5hw
                0x0000000000009a98                __mspabi_mpyi
 .either.text.__umulhisi2
                0x0000000000009aae       0x1a /opt/msp430-gcc/bin/../lib/gcc/msp430-elf/8.3.1/large/full-memory-range/libmul_f5.a(lib2hw_mul_f5.o)
                0x0000000000009aae                __umulhisi2
                0x0000000000009aae                __mspabi_mpyul_f5hw
                0x0000000000009aae                __mspabi_mpyul
 .either.text.memcpy
                0x0000000000009ac8       0x2a /opt/msp430-gcc/bin/../lib/gcc/msp430-elf/8.3.1/../../../../msp430-elf/lib/large/full-memory-range/libc.a(lib_a-memcpy.o)
                0x0000000000009ac8                memcpy
 .either.text.memset
                0x0000000000009af2       0x1a /opt/msp430-gcc/bin/../lib/gcc/msp430-elf/8.3.1/../../../../msp430-elf/lib/large/full-memory-range/libc.a(lib_a-memset.o)
                0x0000000000009af2                memset
 .either.text.printf
                0x0000000000009b0c       0x30 /opt/msp430-gcc/bin/../lib/gcc/msp430-elf/8.3.1/../../../../msp430-elf/lib/large/full-memory-range/libc.a(lib_a-printf.o)
                0x0000000000009b0c                printf
                0x0000000000009b0c                iprintf
 .either.text.putchar
                0x0000000000009b3c       0x2a /opt/msp430-gcc/bin/../lib/gcc/msp430-elf/8.3.1/../../../../msp430-elf/lib/large/full-memory-range/libc.a(lib_a-putchar.o)
                0x0000000000009b3c                putchar
 .either.text._putc_r
                0x0000000000009b66       0x8e /opt/msp430-gcc/bin/../lib/gcc/msp430-elf/8.3.1/../../../../msp430-elf/lib/large/full-memory-range/libc.a(lib_a-putc.o)
                0x0000000000009b66                _putc_r
 .either.text._puts_r
                0x0000000000009bf4       0xce /opt/msp430-gcc/bin/../lib/gcc/msp430-elf/8.3.1/../../../../msp430-elf/lib/large/full-memory-range/libc.a(lib_a-puts.o)
                0x0000000000009bf4                _puts_r
 .either.text.puts
                0x0000000000009cc2        0xc /opt/msp430-gcc/bin/../lib/gcc/msp430-elf/8.3.1/../../../../msp430-elf/lib/large/full-memory-range/libc.a(lib_a-puts.o)
                0x0000000000009cc2                puts
 .either.text.strlen
                0x0000000000009cce       0x18 /opt/msp430-gcc/bin/../lib/gcc/msp430-elf/8.3.1/../../../../msp430-elf/lib/large/full-memory-range/libc.a(lib_a-strlen.o)
                0x0000000000009cce                strlen
 .either.text.__swbuf_r
                0x0000000000009ce6       0xdc /opt/msp430-gcc/bin/../lib/gcc/msp430-elf/8.3.1/../../../../msp430-elf/lib/large/full-memory-range/libc.a(lib_a-wbuf.o)
                0x0000000000009ce6                __swbuf_r
 .either.text.__swsetup_r
                0x0000000000009dc2      0x114 /opt/msp430-gcc/bin/../lib/gcc/msp430-elf/8.3.1/../../../../msp430-elf/lib/large/full-memory-range/libc.a(lib_a-wsetup.o)
                0x0000000000009dc2                __swsetup_r
 .either.text.__sflush_r
                0x0000000000009ed6      0x1ac /opt/msp430-gcc/bin/../lib/gcc/msp430-elf/8.3.1/../../../../msp430-elf/lib/large/full-memory-range/libc.a(lib_a-fflush.o)
                0x0000000000009ed6                __sflush_r
 .either.text._fflush_r
                0x000000000000a082       0x60 /opt/msp430-gcc/bin/../lib/gcc/msp430-elf/8.3.1/../../../../msp430-elf/lib/large/full-memory-range/libc.a(lib_a-fflush.o)
                0x000000000000a082                _fflush_r
 .either.text._cleanup_r
                0x000000000000a0e2        0xa /opt/msp430-gcc/bin/../lib/gcc/msp430-elf/8.3.1/../../../../msp430-elf/lib/large/full-memory-range/libc.a(lib_a-findfp.o)
                0x000000000000a0e2                _cleanup_r
 .either.text.std.isra.0
                0x000000000000a0ec       0x62 /opt/msp430-gcc/bin/../lib/gcc/msp430-elf/8.3.1/../../../../msp430-elf/lib/large/full-memory-range/libc.a(lib_a-findfp.o)
 .either.text.__sfmoreglue
                0x000000000000a14e       0x7c /opt/msp430-gcc/bin/../lib/gcc/msp430-elf/8.3.1/../../../../msp430-elf/lib/large/full-memory-range/libc.a(lib_a-findfp.o)
                0x000000000000a14e                __sfmoreglue
 .either.text.__sinit
                0x000000000000a1ca       0x7c /opt/msp430-gcc/bin/../lib/gcc/msp430-elf/8.3.1/../../../../msp430-elf/lib/large/full-memory-range/libc.a(lib_a-findfp.o)
                0x000000000000a1ca                __sinit
 .either.text.__sfp
                0x000000000000a246       0xc4 /opt/msp430-gcc/bin/../lib/gcc/msp430-elf/8.3.1/../../../../msp430-elf/lib/large/full-memory-range/libc.a(lib_a-findfp.o)
                0x000000000000a246                __sfp
 .either.text.__sfp_lock_acquire
                0x000000000000a30a        0x2 /opt/msp430-gcc/bin/../lib/gcc/msp430-elf/8.3.1/../../../../msp430-elf/lib/large/full-memory-range/libc.a(lib_a-findfp.o)
                0x000000000000a30a                __sfp_lock_acquire
 .either.text.__sfp_lock_release
                0x000000000000a30c        0x2 /opt/msp430-gcc/bin/../lib/gcc/msp430-elf/8.3.1/../../../../msp430-elf/lib/large/full-memory-range/libc.a(lib_a-findfp.o)
                0x000000000000a30c                __sfp_lock_release
 .either.text.__sfvwrite_r
                0x000000000000a30e      0x3f0 /opt/msp430-gcc/bin/../lib/gcc/msp430-elf/8.3.1/../../../../msp430-elf/lib/large/full-memory-range/libc.a(lib_a-fvwrite.o)
                0x000000000000a30e                __sfvwrite_r
 .either.text._fwalk_reent
                0x000000000000a6fe       0x56 /opt/msp430-gcc/bin/../lib/gcc/msp430-elf/8.3.1/../../../../msp430-elf/lib/large/full-memory-range/libc.a(lib_a-fwalk.o)
                0x000000000000a6fe                _fwalk_reent
 .either.text.__swhatbuf_r
                0x000000000000a754       0x7a /opt/msp430-gcc/bin/../lib/gcc/msp430-elf/8.3.1/../../../../msp430-elf/lib/large/full-memory-range/libc.a(lib_a-makebuf.o)
                0x000000000000a754                __swhatbuf_r
 .either.text.__smakebuf_r
                0x000000000000a7ce       0x9a /opt/msp430-gcc/bin/../lib/gcc/msp430-elf/8.3.1/../../../../msp430-elf/lib/large/full-memory-range/libc.a(lib_a-makebuf.o)
                0x000000000000a7ce                __smakebuf_r
 .either.text.memchr
                0x000000000000a868       0x24 /opt/msp430-gcc/bin/../lib/gcc/msp430-elf/8.3.1/../../../../msp430-elf/lib/large/full-memory-range/libc.a(lib_a-memchr.o)
                0x000000000000a868                memchr
 .either.text.memmove
                0x000000000000a88c       0x64 /opt/msp430-gcc/bin/../lib/gcc/msp430-elf/8.3.1/../../../../msp430-elf/lib/large/full-memory-range/libc.a(lib_a-memmove.o)
                0x000000000000a88c                memmove
 .either.text._free_r
                0x000000000000a8f0      0x12a /opt/msp430-gcc/bin/../lib/gcc/msp430-elf/8.3.1/../../../../msp430-elf/lib/large/full-memory-range/libc.a(lib_a-nano-freer.o)
                0x000000000000a8f0                _free_r
 .either.text._malloc_r
                0x000000000000aa1a      0x148 /opt/msp430-gcc/bin/../lib/gcc/msp430-elf/8.3.1/../../../../msp430-elf/lib/large/full-memory-range/libc.a(lib_a-nano-mallocr.o)
                0x000000000000aa1a                _malloc_r
 .either.text._realloc_r
                0x000000000000ab62       0x6a /opt/msp430-gcc/bin/../lib/gcc/msp430-elf/8.3.1/../../../../msp430-elf/lib/large/full-memory-range/libc.a(lib_a-nano-reallocr.o)
                0x000000000000ab62                _realloc_r
 .either.text.__sfputc_r
                0x000000000000abcc       0x38 /opt/msp430-gcc/bin/../lib/gcc/msp430-elf/8.3.1/../../../../msp430-elf/lib/large/full-memory-range/libc.a(lib_a-nano-vfprintf.o)
 .either.text.__sfputs_r
                0x000000000000ac04       0xa0 /opt/msp430-gcc/bin/../lib/gcc/msp430-elf/8.3.1/../../../../msp430-elf/lib/large/full-memory-range/libc.a(lib_a-nano-vfprintf.o)
                0x000000000000ac04                __sfputs_r
 .either.text._vfprintf_r
                0x000000000000aca4      0x2b8 /opt/msp430-gcc/bin/../lib/gcc/msp430-elf/8.3.1/../../../../msp430-elf/lib/large/full-memory-range/libc.a(lib_a-nano-vfprintf.o)
                0x000000000000aca4                _vfiprintf_r
                0x000000000000aca4                _vfprintf_r
 .either.text._sbrk_r
                0x000000000000af5c       0x28 /opt/msp430-gcc/bin/../lib/gcc/msp430-elf/8.3.1/../../../../msp430-elf/lib/large/full-memory-range/libc.a(lib_a-sbrkr.o)
                0x000000000000af5c                _sbrk_r
 .either.text.__sread
                0x000000000000af84       0x4a /opt/msp430-gcc/bin/../lib/gcc/msp430-elf/8.3.1/../../../../msp430-elf/lib/large/full-memory-range/libc.a(lib_a-stdio.o)
                0x000000000000af84                __sread
 .either.text.__swrite
                0x000000000000afce       0x4c /opt/msp430-gcc/bin/../lib/gcc/msp430-elf/8.3.1/../../../../msp430-elf/lib/large/full-memory-range/libc.a(lib_a-stdio.o)
                0x000000000000afce                __swrite
 .either.text.__sseek
                0x000000000000b01a       0x3e /opt/msp430-gcc/bin/../lib/gcc/msp430-elf/8.3.1/../../../../msp430-elf/lib/large/full-memory-range/libc.a(lib_a-stdio.o)
                0x000000000000b01a                __sseek
 .either.text.__sclose
                0x000000000000b058        0xa /opt/msp430-gcc/bin/../lib/gcc/msp430-elf/8.3.1/../../../../msp430-elf/lib/large/full-memory-range/libc.a(lib_a-stdio.o)
                0x000000000000b058                __sclose
 .either.text._write_r
                0x000000000000b062       0x30 /opt/msp430-gcc/bin/../lib/gcc/msp430-elf/8.3.1/../../../../msp430-elf/lib/large/full-memory-range/libc.a(lib_a-writer.o)
                0x000000000000b062                _write_r
 .either.text._close_r
                0x000000000000b092       0x26 /opt/msp430-gcc/bin/../lib/gcc/msp430-elf/8.3.1/../../../../msp430-elf/lib/large/full-memory-range/libc.a(lib_a-closer.o)
                0x000000000000b092                _close_r
 .either.text._fclose_r
                0x000000000000b0b8       0xd0 /opt/msp430-gcc/bin/../lib/gcc/msp430-elf/8.3.1/../../../../msp430-elf/lib/large/full-memory-range/libc.a(lib_a-fclose.o)
                0x000000000000b0b8                _fclose_r
 .either.text.__fputwc
                0x000000000000b188       0xc0 /opt/msp430-gcc/bin/../lib/gcc/msp430-elf/8.3.1/../../../../msp430-elf/lib/large/full-memory-range/libc.a(lib_a-fputwc.o)
                0x000000000000b188                __fputwc
 .either.text._fputwc_r
                0x000000000000b248       0x2a /opt/msp430-gcc/bin/../lib/gcc/msp430-elf/8.3.1/../../../../msp430-elf/lib/large/full-memory-range/libc.a(lib_a-fputwc.o)
                0x000000000000b248                _fputwc_r
 .either.text._fstat_r
                0x000000000000b272       0x28 /opt/msp430-gcc/bin/../lib/gcc/msp430-elf/8.3.1/../../../../msp430-elf/lib/large/full-memory-range/libc.a(lib_a-fstatr.o)
                0x000000000000b272                _fstat_r
 .either.text._isatty_r
                0x000000000000b29a       0x26 /opt/msp430-gcc/bin/../lib/gcc/msp430-elf/8.3.1/../../../../msp430-elf/lib/large/full-memory-range/libc.a(lib_a-isattyr.o)
                0x000000000000b29a                _isatty_r
 .either.text.__locale_charset
                0x000000000000b2c0        0x6 /opt/msp430-gcc/bin/../lib/gcc/msp430-elf/8.3.1/../../../../msp430-elf/lib/large/full-memory-range/libc.a(lib_a-locale.o)
                0x000000000000b2c0                __locale_charset
 .either.text.__locale_mb_cur_max
                0x000000000000b2c6        0x8 /opt/msp430-gcc/bin/../lib/gcc/msp430-elf/8.3.1/../../../../msp430-elf/lib/large/full-memory-range/libc.a(lib_a-locale.o)
                0x000000000000b2c6                __locale_mb_cur_max
 .either.text._lseek_r
                0x000000000000b2ce       0x32 /opt/msp430-gcc/bin/../lib/gcc/msp430-elf/8.3.1/../../../../msp430-elf/lib/large/full-memory-range/libc.a(lib_a-lseekr.o)
                0x000000000000b2ce                _lseek_r
 .either.text._malloc_usable_size_r
                0x000000000000b300       0x28 /opt/msp430-gcc/bin/../lib/gcc/msp430-elf/8.3.1/../../../../msp430-elf/lib/large/full-memory-range/libc.a(lib_a-nano-msizer.o)
                0x000000000000b300                _malloc_usable_size_r
 .either.text._printf_common
                0x000000000000b328      0x10c /opt/msp430-gcc/bin/../lib/gcc/msp430-elf/8.3.1/../../../../msp430-elf/lib/large/full-memory-range/libc.a(lib_a-nano-vfprintf_i.o)
                0x000000000000b328                _printf_common
 .either.text._printf_i
                0x000000000000b434      0x380 /opt/msp430-gcc/bin/../lib/gcc/msp430-elf/8.3.1/../../../../msp430-elf/lib/large/full-memory-range/libc.a(lib_a-nano-vfprintf_i.o)
                0x000000000000b434                _printf_i
 .either.text._read_r
                0x000000000000b7b4       0x30 /opt/msp430-gcc/bin/../lib/gcc/msp430-elf/8.3.1/../../../../msp430-elf/lib/large/full-memory-range/libc.a(lib_a-readr.o)
                0x000000000000b7b4                _read_r
 .either.text._wcrtomb_r
                0x000000000000b7e4       0x82 /opt/msp430-gcc/bin/../lib/gcc/msp430-elf/8.3.1/../../../../msp430-elf/lib/large/full-memory-range/libc.a(lib_a-wcrtomb.o)
                0x000000000000b7e4                _wcrtomb_r
 .either.text.__ascii_wctomb
                0x000000000000b866       0x28 /opt/msp430-gcc/bin/../lib/gcc/msp430-elf/8.3.1/../../../../msp430-elf/lib/large/full-memory-range/libc.a(lib_a-wctomb_r.o)
                0x000000000000b866                __ascii_wctomb
 .either.text.udivmodhi4
                0x000000000000b88e       0x40 /opt/msp430-gcc/bin/../lib/gcc/msp430-elf/8.3.1/large/full-memory-range/libgcc.a(lib2divHI.o)
                0x000000000000b88e                udivmodhi4
 .either.text.__divhi3
                0x000000000000b8ce       0x34 /opt/msp430-gcc/bin/../lib/gcc/msp430-elf/8.3.1/large/full-memory-range/libgcc.a(lib2divHI.o)
                0x000000000000b8ce                __mspabi_divi
 .either.text.isatty
                0x000000000000b902        0x4 /opt/msp430-gcc/bin/../lib/gcc/msp430-elf/8.3.1/../../../../msp430-elf/lib/large/full-memory-range/libnosys.a(ciosyscalls.o)
                0x000000000000b902                isatty
                0x000000000000b902                _isatty
 .either.text.getpid
                0x000000000000b906        0x6 /opt/msp430-gcc/bin/../lib/gcc/msp430-elf/8.3.1/../../../../msp430-elf/lib/large/full-memory-range/libnosys.a(ciosyscalls.o)
                0x000000000000b906                getpid
 .either.text.close
                0x000000000000b90c       0x10 /opt/msp430-gcc/bin/../lib/gcc/msp430-elf/8.3.1/../../../../msp430-elf/lib/large/full-memory-range/libnosys.a(ciosyscalls.o)
                0x000000000000b90c                close
 .either.text.read
                0x000000000000b91c       0x10 /opt/msp430-gcc/bin/../lib/gcc/msp430-elf/8.3.1/../../../../msp430-elf/lib/large/full-memory-range/libnosys.a(ciosyscalls.o)
                0x000000000000b91c                read
 .either.text.fstat
                0x000000000000b92c       0x10 /opt/msp430-gcc/bin/../lib/gcc/msp430-elf/8.3.1/../../../../msp430-elf/lib/large/full-memory-range/libnosys.a(ciosyscalls.o)
                0x000000000000b92c                fstat
 .either.text.lseek
                0x000000000000b93c       0x10 /opt/msp430-gcc/bin/../lib/gcc/msp430-elf/8.3.1/../../../../msp430-elf/lib/large/full-memory-range/libnosys.a(ciosyscalls.o)
                0x000000000000b93c                lseek
 .either.text.kill
                0x000000000000b94c       0x10 /opt/msp430-gcc/bin/../lib/gcc/msp430-elf/8.3.1/../../../../msp430-elf/lib/large/full-memory-range/libnosys.a(ciosyscalls.o)
                0x000000000000b94c                kill
 .either.text.write
                0x000000000000b95c       0x86 /opt/msp430-gcc/bin/../lib/gcc/msp430-elf/8.3.1/../../../../msp430-elf/lib/large/full-memory-range/libnosys.a(write.o)
                0x000000000000b95c                write
 .either.text._sbrk
                0x000000000000b9e2       0x3e /opt/msp430-gcc/bin/../lib/gcc/msp430-elf/8.3.1/../../../../msp430-elf/lib/large/full-memory-range/libnosys.a(sbrk.o)
                0x000000000000b9e2                _sbrk
                0x000000000000b9e2                sbrk
 .either.text   0x000000000000ba20        0x4 /opt/msp430-gcc/bin/../lib/gcc/msp430-elf/8.3.1/../../../../msp430-elf/lib/large/full-memory-range/libnosys.a(cio.o)
                0x000000000000ba20                C$$IO$$
                0x000000000000ba20                _libgloss_cio_hook
 .either.text.abort
                0x000000000000ba24        0xe /opt/msp430-gcc/bin/../lib/gcc/msp430-elf/8.3.1/../../../../msp430-elf/lib/large/full-memory-range/libc.a(lib_a-abort.o)
                0x000000000000ba24                abort
 .either.text.__errno
                0x000000000000ba32        0x6 /opt/msp430-gcc/bin/../lib/gcc/msp430-elf/8.3.1/../../../../msp430-elf/lib/large/full-memory-range/libc.a(lib_a-errno.o)
                0x000000000000ba32                __errno
 .either.text._raise_r
                0x000000000000ba38       0x98 /opt/msp430-gcc/bin/../lib/gcc/msp430-elf/8.3.1/../../../../msp430-elf/lib/large/full-memory-range/libc.a(lib_a-signal.o)
                0x000000000000ba38                _raise_r
 .either.text.raise
                0x000000000000bad0        0xc /opt/msp430-gcc/bin/../lib/gcc/msp430-elf/8.3.1/../../../../msp430-elf/lib/large/full-memory-range/libc.a(lib_a-signal.o)
                0x000000000000bad0                raise
 .either.text._kill_r
                0x000000000000badc       0x28 /opt/msp430-gcc/bin/../lib/gcc/msp430-elf/8.3.1/../../../../msp430-elf/lib/large/full-memory-range/libc.a(lib_a-signalr.o)
                0x000000000000badc                _kill_r
 .either.text._getpid_r
                0x000000000000bb04        0x6 /opt/msp430-gcc/bin/../lib/gcc/msp430-elf/8.3.1/../../../../msp430-elf/lib/large/full-memory-range/libc.a(lib_a-signalr.o)
                0x000000000000bb04                _getpid_r
 .either.text.exit
                0x000000000000bb0a        0x4 /opt/msp430-gcc/bin/../lib/gcc/msp430-elf/8.3.1/../../../../msp430-elf/lib/large/full-memory-range/libnosys.a(exit.o)
                0x000000000000bb0a                exit
                0x000000000000bb0a                _exit

.text           0x000000000000bb0e      0x1a2
                0x000000000000bb0e                PROVIDE (_start, .)
                0x000000000000bb0e                . = ALIGN (0x2)
 *(SORT(.crt_*))
 .crt_0000start
                0x000000000000bb0e        0x4 /opt/msp430-gcc/bin/../lib/gcc/msp430-elf/8.3.1/../../../../msp430-elf/lib/large/full-memory-range/crt0.o
                0x000000000000bb0e                __crt0_start
 .crt_0100init_bss
                0x000000000000bb12       0x10 /opt/msp430-gcc/bin/../lib/gcc/msp430-elf/8.3.1/../../../../msp430-elf/lib/large/full-memory-range/libcrt.a(crt_bss.o)
                0x000000000000bb12                __crt0_init_bss
 .crt_0200init_highbss
                0x000000000000bb22       0x12 /opt/msp430-gcc/bin/../lib/gcc/msp430-elf/8.3.1/../../../../msp430-elf/lib/large/full-memory-range/libcrt.a(crt_high_bss.o)
                0x000000000000bb22                __crt0_init_highbss
 .crt_0300movedata
                0x000000000000bb34       0x14 /opt/msp430-gcc/bin/../lib/gcc/msp430-elf/8.3.1/../../../../msp430-elf/lib/large/full-memory-range/libcrt.a(crt_movedata.o)
                0x000000000000bb34                __crt0_movedata
 .crt_0400move_highdata
                0x000000000000bb48       0x30 /opt/msp430-gcc/bin/../lib/gcc/msp430-elf/8.3.1/../../../../msp430-elf/lib/large/full-memory-range/libcrt.a(crt_move_highdata.o)
                0x000000000000bb48                __crt0_move_highdata
 .crt_0800call_main
                0x000000000000bb78        0x6 /opt/msp430-gcc/bin/../lib/gcc/msp430-elf/8.3.1/../../../../msp430-elf/lib/large/full-memory-range/libcrt.a(crt_main.o)
                0x000000000000bb78                __crt0_call_main
                0x000000000000bb7e                . = ALIGN (0x2)
 *(.lowtext)
 .lowtext       0x000000000000bb7e      0x122 libmsp430_obc.a(msp430_eusci_a_serial_minimal.o)
                0x000000000000bb7e                uart_a0_interrupt_handler
 .lowtext       0x000000000000bca0       0x10 libmsp430_obc.a(port.o)
                0x000000000000bca0                prvTickISR
                0x000000000000bcb0                . = ALIGN (0x2)
 *(.text .stub .text.* .gnu.linkonce.t.* .text:*)
 *(.text.*personality*)
 *(.gnu.warning)
 *(.interp .hash .dynsym .dynstr .gnu.version*)
                [!provide]                        PROVIDE (__etext, .)
                [!provide]                        PROVIDE (_etext, .)
                [!provide]                        PROVIDE (etext, .)
                0x000000000000bcb0                . = ALIGN (0x2)
 *(.init)
 *(.fini)
 *(.tm_clone_table)

.upper.text     0x0000000000010790        0x0
                0x0000000000010790                . = ALIGN (0x2)
 *(.upper.text.* .upper.text)

.infoA

.infoB

.infoC

.infoD

.MSP430.attributes
                0x0000000000000000       0x26
 *(.MSP430.attributes)
 .MSP430.attributes
                0x0000000000000000       0x26 /opt/msp430-gcc/bin/../lib/gcc/msp430-elf/8.3.1/../../../../msp430-elf/lib/large/full-memory-range/crt0.o
 .MSP430.attributes
                0x0000000000000026       0x26 /opt/msp430-gcc/bin/../lib/gcc/msp430-elf/8.3.1/large/full-memory-range/crtbegin_no_eh.o
 .MSP430.attributes
                0x000000000000004c       0x26 main.o
 .MSP430.attributes
                0x0000000000000072       0x26 libmsp430_obc.a(loc_provider_vm_if.o)
 .MSP430.attributes
                0x0000000000000098       0x26 libmsp430_obc.a(msp430_eusci_a_serial_minimal.o)
 .MSP430.attributes
                0x00000000000000be       0x26 libmsp430_obc.a(port.o)
 .MSP430.attributes
                0x00000000000000e4       0x26 libmsp430_obc.a(queue.o)
 .MSP430.attributes
                0x000000000000010a       0x26 libmsp430_obc.a(state_handler_entrypoint_vm_if.o)
 .MSP430.attributes
                0x0000000000000130       0x26 libmsp430_obc.a(tasks.o)
 .MSP430.attributes
                0x0000000000000156       0x26 libmsp430_obc.a(tc_provider_vm_if.o)
 .MSP430.attributes
                0x000000000000017c       0x26 libmsp430_obc.a(tc_validation_vm_if.o)
 .MSP430.attributes
                0x00000000000001a2       0x26 libmsp430_obc.a(thread_state_handler_entrypoint_poll_aoi.o)
 .MSP430.attributes
                0x00000000000001c8       0x26 libmsp430_obc.a(thread_state_handler_entrypoint_poll_mcp.o)
 .MSP430.attributes
                0x00000000000001ee       0x26 libmsp430_obc.a(thread_state_handler_entrypoint_toggle_pwr.o)
 .MSP430.attributes
                0x0000000000000214       0x26 libmsp430_obc.a(thread_state_handler_entrypoint_trig_aoi.o)
 .MSP430.attributes
                0x000000000000023a       0x26 libmsp430_obc.a(thread_state_handler_entrypoint_trig_mcp.o)
 .MSP430.attributes
                0x0000000000000260       0x26 libmsp430_obc.a(thread_state_handler_entrypoint_trig_pwr.o)
 .MSP430.attributes
                0x0000000000000286       0x26 libmsp430_obc.a(timers.o)
 .MSP430.attributes
                0x00000000000002ac       0x26 libmsp430_obc.a(tm_collection_vm_if.o)
 .MSP430.attributes
                0x00000000000002d2       0x26 libmsp430_obc.a(tm_provider_vm_if.o)
 .MSP430.attributes
                0x00000000000002f8       0x26 libmsp430_obc.a(transport.o)
 .MSP430.attributes
                0x000000000000031e       0x26 libmsp430_obc.a(State_Handler_Entrypoint.o)
 .MSP430.attributes
                0x0000000000000344       0x26 libmsp430_obc.a(drivers_config.o)
 .MSP430.attributes
                0x000000000000036a       0x26 libmsp430_obc.a(list.o)
 .MSP430.attributes
                0x0000000000000390       0x26 libmsp430_obc.a(loc_provider.o)
 .MSP430.attributes
                0x00000000000003b6       0x26 libmsp430_obc.a(msp430_obc_interface.o)
 .MSP430.attributes
                0x00000000000003dc       0x26 libmsp430_obc.a(state_handler_entrypoint_invoke_ri.o)
 .MSP430.attributes
                0x0000000000000402       0x26 libmsp430_obc.a(tc_provider.o)
 .MSP430.attributes
                0x0000000000000428       0x26 libmsp430_obc.a(tc_validation.o)
 .MSP430.attributes
                0x000000000000044e       0x26 libmsp430_obc.a(tm_collection.o)
 .MSP430.attributes
                0x0000000000000474       0x26 libmsp430_obc.a(tm_provider.o)
 .MSP430.attributes
                0x000000000000049a       0x26 /opt/msp430-gcc/bin/../lib/gcc/msp430-elf/8.3.1/large/full-memory-range/libgcc.a(lib2divSI.o)
 .MSP430.attributes
                0x00000000000004c0       0x26 /opt/msp430-gcc/bin/../lib/gcc/msp430-elf/8.3.1/large/full-memory-range/libgcc.a(slli.o)
 .MSP430.attributes
                0x00000000000004e6       0x26 /opt/msp430-gcc/bin/../lib/gcc/msp430-elf/8.3.1/large/full-memory-range/libgcc.a(_udivdi3.o)
 .MSP430.attributes
                0x000000000000050c       0x26 /opt/msp430-gcc/bin/../lib/gcc/msp430-elf/8.3.1/large/full-memory-range/libgcc.a(srli.o)
 .MSP430.attributes
                0x0000000000000532       0x26 /opt/msp430-gcc/bin/../lib/gcc/msp430-elf/8.3.1/large/full-memory-range/libgcc.a(_clzdi2.o)
 .MSP430.attributes
                0x0000000000000558       0x26 /opt/msp430-gcc/bin/../lib/gcc/msp430-elf/8.3.1/large/full-memory-range/libgcc.a(_clz.o)
 .MSP430.attributes
                0x000000000000057e       0x26 /opt/msp430-gcc/bin/../lib/gcc/msp430-elf/8.3.1/large/full-memory-range/libmul_f5.a(lib2hw_mul_f5.o)
 .MSP430.attributes
                0x00000000000005a4       0x26 /opt/msp430-gcc/bin/../lib/gcc/msp430-elf/8.3.1/../../../../msp430-elf/lib/large/full-memory-range/libc.a(lib_a-memcpy.o)
 .MSP430.attributes
                0x00000000000005ca       0x26 /opt/msp430-gcc/bin/../lib/gcc/msp430-elf/8.3.1/../../../../msp430-elf/lib/large/full-memory-range/libc.a(lib_a-memset.o)
 .MSP430.attributes
                0x00000000000005f0       0x26 /opt/msp430-gcc/bin/../lib/gcc/msp430-elf/8.3.1/../../../../msp430-elf/lib/large/full-memory-range/libc.a(lib_a-printf.o)
 .MSP430.attributes
                0x0000000000000616       0x26 /opt/msp430-gcc/bin/../lib/gcc/msp430-elf/8.3.1/../../../../msp430-elf/lib/large/full-memory-range/libc.a(lib_a-putchar.o)
 .MSP430.attributes
                0x000000000000063c       0x26 /opt/msp430-gcc/bin/../lib/gcc/msp430-elf/8.3.1/../../../../msp430-elf/lib/large/full-memory-range/libc.a(lib_a-putc.o)
 .MSP430.attributes
                0x0000000000000662       0x26 /opt/msp430-gcc/bin/../lib/gcc/msp430-elf/8.3.1/../../../../msp430-elf/lib/large/full-memory-range/libc.a(lib_a-puts.o)
 .MSP430.attributes
                0x0000000000000688       0x26 /opt/msp430-gcc/bin/../lib/gcc/msp430-elf/8.3.1/../../../../msp430-elf/lib/large/full-memory-range/libc.a(lib_a-strlen.o)
 .MSP430.attributes
                0x00000000000006ae       0x26 /opt/msp430-gcc/bin/../lib/gcc/msp430-elf/8.3.1/../../../../msp430-elf/lib/large/full-memory-range/libc.a(lib_a-wbuf.o)
 .MSP430.attributes
                0x00000000000006d4       0x26 /opt/msp430-gcc/bin/../lib/gcc/msp430-elf/8.3.1/../../../../msp430-elf/lib/large/full-memory-range/libc.a(lib_a-wsetup.o)
 .MSP430.attributes
                0x00000000000006fa       0x26 /opt/msp430-gcc/bin/../lib/gcc/msp430-elf/8.3.1/../../../../msp430-elf/lib/large/full-memory-range/libc.a(lib_a-fflush.o)
 .MSP430.attributes
                0x0000000000000720       0x26 /opt/msp430-gcc/bin/../lib/gcc/msp430-elf/8.3.1/../../../../msp430-elf/lib/large/full-memory-range/libc.a(lib_a-findfp.o)
 .MSP430.attributes
                0x0000000000000746       0x26 /opt/msp430-gcc/bin/../lib/gcc/msp430-elf/8.3.1/../../../../msp430-elf/lib/large/full-memory-range/libc.a(lib_a-fvwrite.o)
 .MSP430.attributes
                0x000000000000076c       0x26 /opt/msp430-gcc/bin/../lib/gcc/msp430-elf/8.3.1/../../../../msp430-elf/lib/large/full-memory-range/libc.a(lib_a-fwalk.o)
 .MSP430.attributes
                0x0000000000000792       0x26 /opt/msp430-gcc/bin/../lib/gcc/msp430-elf/8.3.1/../../../../msp430-elf/lib/large/full-memory-range/libc.a(lib_a-impure.o)
 .MSP430.attributes
                0x00000000000007b8       0x26 /opt/msp430-gcc/bin/../lib/gcc/msp430-elf/8.3.1/../../../../msp430-elf/lib/large/full-memory-range/libc.a(lib_a-makebuf.o)
 .MSP430.attributes
                0x00000000000007de       0x26 /opt/msp430-gcc/bin/../lib/gcc/msp430-elf/8.3.1/../../../../msp430-elf/lib/large/full-memory-range/libc.a(lib_a-memchr.o)
 .MSP430.attributes
                0x0000000000000804       0x26 /opt/msp430-gcc/bin/../lib/gcc/msp430-elf/8.3.1/../../../../msp430-elf/lib/large/full-memory-range/libc.a(lib_a-memmove.o)
 .MSP430.attributes
                0x000000000000082a       0x26 /opt/msp430-gcc/bin/../lib/gcc/msp430-elf/8.3.1/../../../../msp430-elf/lib/large/full-memory-range/libc.a(lib_a-nano-freer.o)
 .MSP430.attributes
                0x0000000000000850       0x26 /opt/msp430-gcc/bin/../lib/gcc/msp430-elf/8.3.1/../../../../msp430-elf/lib/large/full-memory-range/libc.a(lib_a-nano-mallocr.o)
 .MSP430.attributes
                0x0000000000000876       0x26 /opt/msp430-gcc/bin/../lib/gcc/msp430-elf/8.3.1/../../../../msp430-elf/lib/large/full-memory-range/libc.a(lib_a-nano-reallocr.o)
 .MSP430.attributes
                0x000000000000089c       0x26 /opt/msp430-gcc/bin/../lib/gcc/msp430-elf/8.3.1/../../../../msp430-elf/lib/large/full-memory-range/libc.a(lib_a-nano-vfprintf.o)
 .MSP430.attributes
                0x00000000000008c2       0x26 /opt/msp430-gcc/bin/../lib/gcc/msp430-elf/8.3.1/../../../../msp430-elf/lib/large/full-memory-range/libc.a(lib_a-sbrkr.o)
 .MSP430.attributes
                0x00000000000008e8       0x26 /opt/msp430-gcc/bin/../lib/gcc/msp430-elf/8.3.1/../../../../msp430-elf/lib/large/full-memory-range/libc.a(lib_a-stdio.o)
 .MSP430.attributes
                0x000000000000090e       0x26 /opt/msp430-gcc/bin/../lib/gcc/msp430-elf/8.3.1/../../../../msp430-elf/lib/large/full-memory-range/libc.a(lib_a-writer.o)
 .MSP430.attributes
                0x0000000000000934       0x26 /opt/msp430-gcc/bin/../lib/gcc/msp430-elf/8.3.1/../../../../msp430-elf/lib/large/full-memory-range/libc.a(lib_a-closer.o)
 .MSP430.attributes
                0x000000000000095a       0x26 /opt/msp430-gcc/bin/../lib/gcc/msp430-elf/8.3.1/../../../../msp430-elf/lib/large/full-memory-range/libc.a(lib_a-fclose.o)
 .MSP430.attributes
                0x0000000000000980       0x26 /opt/msp430-gcc/bin/../lib/gcc/msp430-elf/8.3.1/../../../../msp430-elf/lib/large/full-memory-range/libc.a(lib_a-fputwc.o)
 .MSP430.attributes
                0x00000000000009a6       0x26 /opt/msp430-gcc/bin/../lib/gcc/msp430-elf/8.3.1/../../../../msp430-elf/lib/large/full-memory-range/libc.a(lib_a-fstatr.o)
 .MSP430.attributes
                0x00000000000009cc       0x26 /opt/msp430-gcc/bin/../lib/gcc/msp430-elf/8.3.1/../../../../msp430-elf/lib/large/full-memory-range/libc.a(lib_a-isattyr.o)
 .MSP430.attributes
                0x00000000000009f2       0x26 /opt/msp430-gcc/bin/../lib/gcc/msp430-elf/8.3.1/../../../../msp430-elf/lib/large/full-memory-range/libc.a(lib_a-locale.o)
 .MSP430.attributes
                0x0000000000000a18       0x26 /opt/msp430-gcc/bin/../lib/gcc/msp430-elf/8.3.1/../../../../msp430-elf/lib/large/full-memory-range/libc.a(lib_a-lseekr.o)
 .MSP430.attributes
                0x0000000000000a3e       0x26 /opt/msp430-gcc/bin/../lib/gcc/msp430-elf/8.3.1/../../../../msp430-elf/lib/large/full-memory-range/libc.a(lib_a-nano-msizer.o)
 .MSP430.attributes
                0x0000000000000a64       0x26 /opt/msp430-gcc/bin/../lib/gcc/msp430-elf/8.3.1/../../../../msp430-elf/lib/large/full-memory-range/libc.a(lib_a-nano-vfprintf_i.o)
 .MSP430.attributes
                0x0000000000000a8a       0x26 /opt/msp430-gcc/bin/../lib/gcc/msp430-elf/8.3.1/../../../../msp430-elf/lib/large/full-memory-range/libc.a(lib_a-readr.o)
 .MSP430.attributes
                0x0000000000000ab0       0x26 /opt/msp430-gcc/bin/../lib/gcc/msp430-elf/8.3.1/../../../../msp430-elf/lib/large/full-memory-range/libc.a(lib_a-reent.o)
 .MSP430.attributes
                0x0000000000000ad6       0x26 /opt/msp430-gcc/bin/../lib/gcc/msp430-elf/8.3.1/../../../../msp430-elf/lib/large/full-memory-range/libc.a(lib_a-strcmp.o)
 .MSP430.attributes
                0x0000000000000afc       0x26 /opt/msp430-gcc/bin/../lib/gcc/msp430-elf/8.3.1/../../../../msp430-elf/lib/large/full-memory-range/libc.a(lib_a-wcrtomb.o)
 .MSP430.attributes
                0x0000000000000b22       0x26 /opt/msp430-gcc/bin/../lib/gcc/msp430-elf/8.3.1/../../../../msp430-elf/lib/large/full-memory-range/libc.a(lib_a-wctomb_r.o)
 .MSP430.attributes
                0x0000000000000b48       0x26 /opt/msp430-gcc/bin/../lib/gcc/msp430-elf/8.3.1/large/full-memory-range/libgcc.a(_muldi3.o)
 .MSP430.attributes
                0x0000000000000b6e       0x26 /opt/msp430-gcc/bin/../lib/gcc/msp430-elf/8.3.1/large/full-memory-range/libgcc.a(lib2divHI.o)
 .MSP430.attributes
                0x0000000000000b94       0x26 /opt/msp430-gcc/bin/../lib/gcc/msp430-elf/8.3.1/../../../../msp430-elf/lib/large/full-memory-range/libcrt.a(crt_bss.o)
 .MSP430.attributes
                0x0000000000000bba       0x26 /opt/msp430-gcc/bin/../lib/gcc/msp430-elf/8.3.1/../../../../msp430-elf/lib/large/full-memory-range/libcrt.a(crt_high_bss.o)
 .MSP430.attributes
                0x0000000000000be0       0x26 /opt/msp430-gcc/bin/../lib/gcc/msp430-elf/8.3.1/../../../../msp430-elf/lib/large/full-memory-range/libcrt.a(crt_movedata.o)
 .MSP430.attributes
                0x0000000000000c06       0x26 /opt/msp430-gcc/bin/../lib/gcc/msp430-elf/8.3.1/../../../../msp430-elf/lib/large/full-memory-range/libcrt.a(crt_move_highdata.o)
 .MSP430.attributes
                0x0000000000000c2c       0x26 /opt/msp430-gcc/bin/../lib/gcc/msp430-elf/8.3.1/../../../../msp430-elf/lib/large/full-memory-range/libcrt.a(crt_main.o)
 .MSP430.attributes
                0x0000000000000c52       0x26 /opt/msp430-gcc/bin/../lib/gcc/msp430-elf/8.3.1/../../../../msp430-elf/lib/large/full-memory-range/libnosys.a(ciosyscalls.o)
 .MSP430.attributes
                0x0000000000000c78       0x26 /opt/msp430-gcc/bin/../lib/gcc/msp430-elf/8.3.1/../../../../msp430-elf/lib/large/full-memory-range/libnosys.a(write.o)
 .MSP430.attributes
                0x0000000000000c9e       0x26 /opt/msp430-gcc/bin/../lib/gcc/msp430-elf/8.3.1/../../../../msp430-elf/lib/large/full-memory-range/libnosys.a(sbrk.o)
 .MSP430.attributes
                0x0000000000000cc4       0x26 /opt/msp430-gcc/bin/../lib/gcc/msp430-elf/8.3.1/../../../../msp430-elf/lib/large/full-memory-range/libnosys.a(cio.o)
 .MSP430.attributes
                0x0000000000000cea       0x26 /opt/msp430-gcc/bin/../lib/gcc/msp430-elf/8.3.1/../../../../msp430-elf/lib/large/full-memory-range/libc.a(lib_a-abort.o)
 .MSP430.attributes
                0x0000000000000d10       0x26 /opt/msp430-gcc/bin/../lib/gcc/msp430-elf/8.3.1/../../../../msp430-elf/lib/large/full-memory-range/libc.a(lib_a-errno.o)
 .MSP430.attributes
                0x0000000000000d36       0x26 /opt/msp430-gcc/bin/../lib/gcc/msp430-elf/8.3.1/../../../../msp430-elf/lib/large/full-memory-range/libc.a(lib_a-signal.o)
 .MSP430.attributes
                0x0000000000000d5c       0x26 /opt/msp430-gcc/bin/../lib/gcc/msp430-elf/8.3.1/../../../../msp430-elf/lib/large/full-memory-range/libc.a(lib_a-signalr.o)
 .MSP430.attributes
                0x0000000000000d82       0x26 /opt/msp430-gcc/bin/../lib/gcc/msp430-elf/8.3.1/../../../../msp430-elf/lib/large/full-memory-range/libnosys.a(exit.o)
 .MSP430.attributes
                0x0000000000000da8       0x26 /opt/msp430-gcc/bin/../lib/gcc/msp430-elf/8.3.1/large/full-memory-range/crtend_no_eh.o
 *(.gnu.attributes)
 *(__TI_build_attributes)

.stab
 *(.stab)

.stabstr
 *(.stabstr)

.stab.excl
 *(.stab.excl)

.stab.exclstr
 *(.stab.exclstr)

.stab.index
 *(.stab.index)

.stab.indexstr
 *(.stab.indexstr)

.comment        0x0000000000000000       0x39
 *(.comment)
 .comment       0x0000000000000000       0x39 /opt/msp430-gcc/bin/../lib/gcc/msp430-elf/8.3.1/large/full-memory-range/crtbegin_no_eh.o
                                         0x3a (size before relaxing)
 .comment       0x0000000000000039       0x3a main.o
 .comment       0x0000000000000039       0x3a libmsp430_obc.a(loc_provider_vm_if.o)
 .comment       0x0000000000000039       0x3a libmsp430_obc.a(msp430_eusci_a_serial_minimal.o)
 .comment       0x0000000000000039       0x3a libmsp430_obc.a(port.o)
 .comment       0x0000000000000039       0x3a libmsp430_obc.a(queue.o)
 .comment       0x0000000000000039       0x3a libmsp430_obc.a(state_handler_entrypoint_vm_if.o)
 .comment       0x0000000000000039       0x3a libmsp430_obc.a(tasks.o)
 .comment       0x0000000000000039       0x3a libmsp430_obc.a(tc_provider_vm_if.o)
 .comment       0x0000000000000039       0x3a libmsp430_obc.a(tc_validation_vm_if.o)
 .comment       0x0000000000000039       0x3a libmsp430_obc.a(thread_state_handler_entrypoint_poll_aoi.o)
 .comment       0x0000000000000039       0x3a libmsp430_obc.a(thread_state_handler_entrypoint_poll_mcp.o)
 .comment       0x0000000000000039       0x3a libmsp430_obc.a(thread_state_handler_entrypoint_toggle_pwr.o)
 .comment       0x0000000000000039       0x3a libmsp430_obc.a(thread_state_handler_entrypoint_trig_aoi.o)
 .comment       0x0000000000000039       0x3a libmsp430_obc.a(thread_state_handler_entrypoint_trig_mcp.o)
 .comment       0x0000000000000039       0x3a libmsp430_obc.a(thread_state_handler_entrypoint_trig_pwr.o)
 .comment       0x0000000000000039       0x3a libmsp430_obc.a(timers.o)
 .comment       0x0000000000000039       0x3a libmsp430_obc.a(tm_collection_vm_if.o)
 .comment       0x0000000000000039       0x3a libmsp430_obc.a(tm_provider_vm_if.o)
 .comment       0x0000000000000039       0x3a libmsp430_obc.a(transport.o)
 .comment       0x0000000000000039       0x3a libmsp430_obc.a(State_Handler_Entrypoint.o)
 .comment       0x0000000000000039       0x3a libmsp430_obc.a(drivers_config.o)
 .comment       0x0000000000000039       0x3a libmsp430_obc.a(list.o)
 .comment       0x0000000000000039       0x3a libmsp430_obc.a(loc_provider.o)
 .comment       0x0000000000000039       0x3a libmsp430_obc.a(msp430_obc_interface.o)
 .comment       0x0000000000000039       0x3a libmsp430_obc.a(state_handler_entrypoint_invoke_ri.o)
 .comment       0x0000000000000039       0x3a libmsp430_obc.a(tc_provider.o)
 .comment       0x0000000000000039       0x3a libmsp430_obc.a(tc_validation.o)
 .comment       0x0000000000000039       0x3a libmsp430_obc.a(tm_collection.o)
 .comment       0x0000000000000039       0x3a libmsp430_obc.a(tm_provider.o)
 .comment       0x0000000000000039       0x3a /opt/msp430-gcc/bin/../lib/gcc/msp430-elf/8.3.1/large/full-memory-range/libgcc.a(lib2divSI.o)
 .comment       0x0000000000000039       0x3a /opt/msp430-gcc/bin/../lib/gcc/msp430-elf/8.3.1/large/full-memory-range/libgcc.a(_udivdi3.o)
 .comment       0x0000000000000039       0x3a /opt/msp430-gcc/bin/../lib/gcc/msp430-elf/8.3.1/large/full-memory-range/libgcc.a(_clzdi2.o)
 .comment       0x0000000000000039       0x3a /opt/msp430-gcc/bin/../lib/gcc/msp430-elf/8.3.1/large/full-memory-range/libgcc.a(_clz.o)
 .comment       0x0000000000000039       0x3a /opt/msp430-gcc/bin/../lib/gcc/msp430-elf/8.3.1/../../../../msp430-elf/lib/large/full-memory-range/libc.a(lib_a-memcpy.o)
 .comment       0x0000000000000039       0x3a /opt/msp430-gcc/bin/../lib/gcc/msp430-elf/8.3.1/../../../../msp430-elf/lib/large/full-memory-range/libc.a(lib_a-memset.o)
 .comment       0x0000000000000039       0x3a /opt/msp430-gcc/bin/../lib/gcc/msp430-elf/8.3.1/../../../../msp430-elf/lib/large/full-memory-range/libc.a(lib_a-printf.o)
 .comment       0x0000000000000039       0x3a /opt/msp430-gcc/bin/../lib/gcc/msp430-elf/8.3.1/../../../../msp430-elf/lib/large/full-memory-range/libc.a(lib_a-putchar.o)
 .comment       0x0000000000000039       0x3a /opt/msp430-gcc/bin/../lib/gcc/msp430-elf/8.3.1/../../../../msp430-elf/lib/large/full-memory-range/libc.a(lib_a-putc.o)
 .comment       0x0000000000000039       0x3a /opt/msp430-gcc/bin/../lib/gcc/msp430-elf/8.3.1/../../../../msp430-elf/lib/large/full-memory-range/libc.a(lib_a-puts.o)
 .comment       0x0000000000000039       0x3a /opt/msp430-gcc/bin/../lib/gcc/msp430-elf/8.3.1/../../../../msp430-elf/lib/large/full-memory-range/libc.a(lib_a-strlen.o)
 .comment       0x0000000000000039       0x3a /opt/msp430-gcc/bin/../lib/gcc/msp430-elf/8.3.1/../../../../msp430-elf/lib/large/full-memory-range/libc.a(lib_a-wbuf.o)
 .comment       0x0000000000000039       0x3a /opt/msp430-gcc/bin/../lib/gcc/msp430-elf/8.3.1/../../../../msp430-elf/lib/large/full-memory-range/libc.a(lib_a-wsetup.o)
 .comment       0x0000000000000039       0x3a /opt/msp430-gcc/bin/../lib/gcc/msp430-elf/8.3.1/../../../../msp430-elf/lib/large/full-memory-range/libc.a(lib_a-fflush.o)
 .comment       0x0000000000000039       0x3a /opt/msp430-gcc/bin/../lib/gcc/msp430-elf/8.3.1/../../../../msp430-elf/lib/large/full-memory-range/libc.a(lib_a-findfp.o)
 .comment       0x0000000000000039       0x3a /opt/msp430-gcc/bin/../lib/gcc/msp430-elf/8.3.1/../../../../msp430-elf/lib/large/full-memory-range/libc.a(lib_a-fvwrite.o)
 .comment       0x0000000000000039       0x3a /opt/msp430-gcc/bin/../lib/gcc/msp430-elf/8.3.1/../../../../msp430-elf/lib/large/full-memory-range/libc.a(lib_a-fwalk.o)
 .comment       0x0000000000000039       0x3a /opt/msp430-gcc/bin/../lib/gcc/msp430-elf/8.3.1/../../../../msp430-elf/lib/large/full-memory-range/libc.a(lib_a-impure.o)
 .comment       0x0000000000000039       0x3a /opt/msp430-gcc/bin/../lib/gcc/msp430-elf/8.3.1/../../../../msp430-elf/lib/large/full-memory-range/libc.a(lib_a-makebuf.o)
 .comment       0x0000000000000039       0x3a /opt/msp430-gcc/bin/../lib/gcc/msp430-elf/8.3.1/../../../../msp430-elf/lib/large/full-memory-range/libc.a(lib_a-memchr.o)
 .comment       0x0000000000000039       0x3a /opt/msp430-gcc/bin/../lib/gcc/msp430-elf/8.3.1/../../../../msp430-elf/lib/large/full-memory-range/libc.a(lib_a-memmove.o)
 .comment       0x0000000000000039       0x3a /opt/msp430-gcc/bin/../lib/gcc/msp430-elf/8.3.1/../../../../msp430-elf/lib/large/full-memory-range/libc.a(lib_a-nano-freer.o)
 .comment       0x0000000000000039       0x3a /opt/msp430-gcc/bin/../lib/gcc/msp430-elf/8.3.1/../../../../msp430-elf/lib/large/full-memory-range/libc.a(lib_a-nano-mallocr.o)
 .comment       0x0000000000000039       0x3a /opt/msp430-gcc/bin/../lib/gcc/msp430-elf/8.3.1/../../../../msp430-elf/lib/large/full-memory-range/libc.a(lib_a-nano-reallocr.o)
 .comment       0x0000000000000039       0x3a /opt/msp430-gcc/bin/../lib/gcc/msp430-elf/8.3.1/../../../../msp430-elf/lib/large/full-memory-range/libc.a(lib_a-nano-vfprintf.o)
 .comment       0x0000000000000039       0x3a /opt/msp430-gcc/bin/../lib/gcc/msp430-elf/8.3.1/../../../../msp430-elf/lib/large/full-memory-range/libc.a(lib_a-sbrkr.o)
 .comment       0x0000000000000039       0x3a /opt/msp430-gcc/bin/../lib/gcc/msp430-elf/8.3.1/../../../../msp430-elf/lib/large/full-memory-range/libc.a(lib_a-stdio.o)
 .comment       0x0000000000000039       0x3a /opt/msp430-gcc/bin/../lib/gcc/msp430-elf/8.3.1/../../../../msp430-elf/lib/large/full-memory-range/libc.a(lib_a-writer.o)
 .comment       0x0000000000000039       0x3a /opt/msp430-gcc/bin/../lib/gcc/msp430-elf/8.3.1/../../../../msp430-elf/lib/large/full-memory-range/libc.a(lib_a-closer.o)
 .comment       0x0000000000000039       0x3a /opt/msp430-gcc/bin/../lib/gcc/msp430-elf/8.3.1/../../../../msp430-elf/lib/large/full-memory-range/libc.a(lib_a-fclose.o)
 .comment       0x0000000000000039       0x3a /opt/msp430-gcc/bin/../lib/gcc/msp430-elf/8.3.1/../../../../msp430-elf/lib/large/full-memory-range/libc.a(lib_a-fputwc.o)
 .comment       0x0000000000000039       0x3a /opt/msp430-gcc/bin/../lib/gcc/msp430-elf/8.3.1/../../../../msp430-elf/lib/large/full-memory-range/libc.a(lib_a-fstatr.o)
 .comment       0x0000000000000039       0x3a /opt/msp430-gcc/bin/../lib/gcc/msp430-elf/8.3.1/../../../../msp430-elf/lib/large/full-memory-range/libc.a(lib_a-isattyr.o)
 .comment       0x0000000000000039       0x3a /opt/msp430-gcc/bin/../lib/gcc/msp430-elf/8.3.1/../../../../msp430-elf/lib/large/full-memory-range/libc.a(lib_a-locale.o)
 .comment       0x0000000000000039       0x3a /opt/msp430-gcc/bin/../lib/gcc/msp430-elf/8.3.1/../../../../msp430-elf/lib/large/full-memory-range/libc.a(lib_a-lseekr.o)
 .comment       0x0000000000000039       0x3a /opt/msp430-gcc/bin/../lib/gcc/msp430-elf/8.3.1/../../../../msp430-elf/lib/large/full-memory-range/libc.a(lib_a-nano-msizer.o)
 .comment       0x0000000000000039       0x3a /opt/msp430-gcc/bin/../lib/gcc/msp430-elf/8.3.1/../../../../msp430-elf/lib/large/full-memory-range/libc.a(lib_a-nano-vfprintf_i.o)
 .comment       0x0000000000000039       0x3a /opt/msp430-gcc/bin/../lib/gcc/msp430-elf/8.3.1/../../../../msp430-elf/lib/large/full-memory-range/libc.a(lib_a-readr.o)
 .comment       0x0000000000000039       0x3a /opt/msp430-gcc/bin/../lib/gcc/msp430-elf/8.3.1/../../../../msp430-elf/lib/large/full-memory-range/libc.a(lib_a-reent.o)
 .comment       0x0000000000000039       0x3a /opt/msp430-gcc/bin/../lib/gcc/msp430-elf/8.3.1/../../../../msp430-elf/lib/large/full-memory-range/libc.a(lib_a-strcmp.o)
 .comment       0x0000000000000039       0x3a /opt/msp430-gcc/bin/../lib/gcc/msp430-elf/8.3.1/../../../../msp430-elf/lib/large/full-memory-range/libc.a(lib_a-wcrtomb.o)
 .comment       0x0000000000000039       0x3a /opt/msp430-gcc/bin/../lib/gcc/msp430-elf/8.3.1/../../../../msp430-elf/lib/large/full-memory-range/libc.a(lib_a-wctomb_r.o)
 .comment       0x0000000000000039       0x3a /opt/msp430-gcc/bin/../lib/gcc/msp430-elf/8.3.1/large/full-memory-range/libgcc.a(_muldi3.o)
 .comment       0x0000000000000039       0x3a /opt/msp430-gcc/bin/../lib/gcc/msp430-elf/8.3.1/large/full-memory-range/libgcc.a(lib2divHI.o)
 .comment       0x0000000000000039       0x3a /opt/msp430-gcc/bin/../lib/gcc/msp430-elf/8.3.1/../../../../msp430-elf/lib/large/full-memory-range/libnosys.a(write.o)
 .comment       0x0000000000000039       0x3a /opt/msp430-gcc/bin/../lib/gcc/msp430-elf/8.3.1/../../../../msp430-elf/lib/large/full-memory-range/libnosys.a(sbrk.o)
 .comment       0x0000000000000039       0x3a /opt/msp430-gcc/bin/../lib/gcc/msp430-elf/8.3.1/../../../../msp430-elf/lib/large/full-memory-range/libc.a(lib_a-abort.o)
 .comment       0x0000000000000039       0x3a /opt/msp430-gcc/bin/../lib/gcc/msp430-elf/8.3.1/../../../../msp430-elf/lib/large/full-memory-range/libc.a(lib_a-errno.o)
 .comment       0x0000000000000039       0x3a /opt/msp430-gcc/bin/../lib/gcc/msp430-elf/8.3.1/../../../../msp430-elf/lib/large/full-memory-range/libc.a(lib_a-signal.o)
 .comment       0x0000000000000039       0x3a /opt/msp430-gcc/bin/../lib/gcc/msp430-elf/8.3.1/../../../../msp430-elf/lib/large/full-memory-range/libc.a(lib_a-signalr.o)
 .comment       0x0000000000000039       0x3a /opt/msp430-gcc/bin/../lib/gcc/msp430-elf/8.3.1/../../../../msp430-elf/lib/large/full-memory-range/libnosys.a(exit.o)
 .comment       0x0000000000000039       0x3a /opt/msp430-gcc/bin/../lib/gcc/msp430-elf/8.3.1/large/full-memory-range/crtend_no_eh.o

.debug
 *(.debug)

.line
 *(.line)

.debug_srcinfo
 *(.debug_srcinfo)

.debug_sfnames
 *(.debug_sfnames)

.debug_aranges  0x0000000000000000      0x8d0
 *(.debug_aranges)
 .debug_aranges
                0x0000000000000000       0x40 main.o
 .debug_aranges
                0x0000000000000040       0x28 libmsp430_obc.a(loc_provider_vm_if.o)
 .debug_aranges
                0x0000000000000068       0x50 libmsp430_obc.a(msp430_eusci_a_serial_minimal.o)
 .debug_aranges
                0x00000000000000b8       0x48 libmsp430_obc.a(port.o)
 .debug_aranges
                0x0000000000000100       0xc8 libmsp430_obc.a(queue.o)
 .debug_aranges
                0x00000000000001c8       0x50 libmsp430_obc.a(state_handler_entrypoint_vm_if.o)
 .debug_aranges
                0x0000000000000218      0x110 libmsp430_obc.a(tasks.o)
 .debug_aranges
                0x0000000000000328       0x28 libmsp430_obc.a(tc_provider_vm_if.o)
 .debug_aranges
                0x0000000000000350       0x28 libmsp430_obc.a(tc_validation_vm_if.o)
 .debug_aranges
                0x0000000000000378       0x28 libmsp430_obc.a(thread_state_handler_entrypoint_poll_aoi.o)
 .debug_aranges
                0x00000000000003a0       0x28 libmsp430_obc.a(thread_state_handler_entrypoint_poll_mcp.o)
 .debug_aranges
                0x00000000000003c8       0x28 libmsp430_obc.a(thread_state_handler_entrypoint_toggle_pwr.o)
 .debug_aranges
                0x00000000000003f0       0x20 libmsp430_obc.a(thread_state_handler_entrypoint_trig_aoi.o)
 .debug_aranges
                0x0000000000000410       0x20 libmsp430_obc.a(thread_state_handler_entrypoint_trig_mcp.o)
 .debug_aranges
                0x0000000000000430       0x20 libmsp430_obc.a(thread_state_handler_entrypoint_trig_pwr.o)
 .debug_aranges
                0x0000000000000450       0x90 libmsp430_obc.a(timers.o)
 .debug_aranges
                0x00000000000004e0       0x28 libmsp430_obc.a(tm_collection_vm_if.o)
 .debug_aranges
                0x0000000000000508       0x28 libmsp430_obc.a(tm_provider_vm_if.o)
 .debug_aranges
                0x0000000000000530       0x68 libmsp430_obc.a(transport.o)
 .debug_aranges
                0x0000000000000598       0x58 libmsp430_obc.a(State_Handler_Entrypoint.o)
 .debug_aranges
                0x00000000000005f0       0x18 libmsp430_obc.a(drivers_config.o)
 .debug_aranges
                0x0000000000000608       0x40 libmsp430_obc.a(list.o)
 .debug_aranges
                0x0000000000000648       0x28 libmsp430_obc.a(loc_provider.o)
 .debug_aranges
                0x0000000000000670       0xb0 libmsp430_obc.a(msp430_obc_interface.o)
 .debug_aranges
                0x0000000000000720       0x48 libmsp430_obc.a(state_handler_entrypoint_invoke_ri.o)
 .debug_aranges
                0x0000000000000768       0x28 libmsp430_obc.a(tc_provider.o)
 .debug_aranges
                0x0000000000000790       0x20 libmsp430_obc.a(tc_validation.o)
 .debug_aranges
                0x00000000000007b0       0x20 libmsp430_obc.a(tm_collection.o)
 .debug_aranges
                0x00000000000007d0       0x28 libmsp430_obc.a(tm_provider.o)
 .debug_aranges
                0x00000000000007f8       0x58 /opt/msp430-gcc/bin/../lib/gcc/msp430-elf/8.3.1/../../../../msp430-elf/lib/large/full-memory-range/libnosys.a(ciosyscalls.o)
 .debug_aranges
                0x0000000000000850       0x20 /opt/msp430-gcc/bin/../lib/gcc/msp430-elf/8.3.1/../../../../msp430-elf/lib/large/full-memory-range/libnosys.a(write.o)
 .debug_aranges
                0x0000000000000870       0x20 /opt/msp430-gcc/bin/../lib/gcc/msp430-elf/8.3.1/../../../../msp430-elf/lib/large/full-memory-range/libnosys.a(sbrk.o)
 .debug_aranges
                0x0000000000000890       0x20 /opt/msp430-gcc/bin/../lib/gcc/msp430-elf/8.3.1/../../../../msp430-elf/lib/large/full-memory-range/libnosys.a(cio.o)
 .debug_aranges
                0x00000000000008b0       0x20 /opt/msp430-gcc/bin/../lib/gcc/msp430-elf/8.3.1/../../../../msp430-elf/lib/large/full-memory-range/libnosys.a(exit.o)

.debug_pubnames
 *(.debug_pubnames)

.debug_info     0x0000000000000000    0x3ae95
 *(.debug_info .gnu.linkonce.wi.*)
 .debug_info    0x0000000000000000     0x340e main.o
 .debug_info    0x000000000000340e      0xad3 libmsp430_obc.a(loc_provider_vm_if.o)
 .debug_info    0x0000000000003ee1     0x422a libmsp430_obc.a(msp430_eusci_a_serial_minimal.o)
 .debug_info    0x000000000000810b     0x3268 libmsp430_obc.a(port.o)
 .debug_info    0x000000000000b373     0x4c38 libmsp430_obc.a(queue.o)
 .debug_info    0x000000000000ffab      0xb22 libmsp430_obc.a(state_handler_entrypoint_vm_if.o)
 .debug_info    0x0000000000010acd     0x4738 libmsp430_obc.a(tasks.o)
 .debug_info    0x0000000000015205      0xac5 libmsp430_obc.a(tc_provider_vm_if.o)
 .debug_info    0x0000000000015cca      0xa06 libmsp430_obc.a(tc_validation_vm_if.o)
 .debug_info    0x00000000000166d0     0x2b37 libmsp430_obc.a(thread_state_handler_entrypoint_poll_aoi.o)
 .debug_info    0x0000000000019207     0x2b37 libmsp430_obc.a(thread_state_handler_entrypoint_poll_mcp.o)
 .debug_info    0x000000000001bd3e     0x2b37 libmsp430_obc.a(thread_state_handler_entrypoint_toggle_pwr.o)
 .debug_info    0x000000000001e875     0x293b libmsp430_obc.a(thread_state_handler_entrypoint_trig_aoi.o)
 .debug_info    0x00000000000211b0     0x293b libmsp430_obc.a(thread_state_handler_entrypoint_trig_mcp.o)
 .debug_info    0x0000000000023aeb     0x293b libmsp430_obc.a(thread_state_handler_entrypoint_trig_pwr.o)
 .debug_info    0x0000000000026426     0x4471 libmsp430_obc.a(timers.o)
 .debug_info    0x000000000002a897      0xa27 libmsp430_obc.a(tm_collection_vm_if.o)
 .debug_info    0x000000000002b2be      0xafb libmsp430_obc.a(tm_provider_vm_if.o)
 .debug_info    0x000000000002bdb9     0x371a libmsp430_obc.a(transport.o)
 .debug_info    0x000000000002f4d3     0x12cf libmsp430_obc.a(State_Handler_Entrypoint.o)
 .debug_info    0x00000000000307a2      0xbb1 libmsp430_obc.a(drivers_config.o)
 .debug_info    0x0000000000031353     0x32b2 libmsp430_obc.a(list.o)
 .debug_info    0x0000000000034605      0xa76 libmsp430_obc.a(loc_provider.o)
 .debug_info    0x000000000003507b     0x3990 libmsp430_obc.a(msp430_obc_interface.o)
 .debug_info    0x0000000000038a0b      0xcb6 libmsp430_obc.a(state_handler_entrypoint_invoke_ri.o)
 .debug_info    0x00000000000396c1      0x1b0 libmsp430_obc.a(tc_provider.o)
 .debug_info    0x0000000000039871      0x588 libmsp430_obc.a(tc_validation.o)
 .debug_info    0x0000000000039df9      0x102 libmsp430_obc.a(tm_collection.o)
 .debug_info    0x0000000000039efb      0x190 libmsp430_obc.a(tm_provider.o)
 .debug_info    0x000000000003a08b       0xd2 /opt/msp430-gcc/bin/../lib/gcc/msp430-elf/8.3.1/../../../../msp430-elf/lib/large/full-memory-range/libnosys.a(ciosyscalls.o)
 .debug_info    0x000000000003a15d      0xabc /opt/msp430-gcc/bin/../lib/gcc/msp430-elf/8.3.1/../../../../msp430-elf/lib/large/full-memory-range/libnosys.a(write.o)
 .debug_info    0x000000000003ac19      0x15f /opt/msp430-gcc/bin/../lib/gcc/msp430-elf/8.3.1/../../../../msp430-elf/lib/large/full-memory-range/libnosys.a(sbrk.o)
 .debug_info    0x000000000003ad78       0xce /opt/msp430-gcc/bin/../lib/gcc/msp430-elf/8.3.1/../../../../msp430-elf/lib/large/full-memory-range/libnosys.a(cio.o)
 .debug_info    0x000000000003ae46       0x4f /opt/msp430-gcc/bin/../lib/gcc/msp430-elf/8.3.1/../../../../msp430-elf/lib/large/full-memory-range/libnosys.a(exit.o)

.debug_abbrev   0x0000000000000000     0x4516
 *(.debug_abbrev)
 .debug_abbrev  0x0000000000000000      0x23a main.o
 .debug_abbrev  0x000000000000023a      0x219 libmsp430_obc.a(loc_provider_vm_if.o)
 .debug_abbrev  0x0000000000000453      0x4f0 libmsp430_obc.a(msp430_eusci_a_serial_minimal.o)
 .debug_abbrev  0x0000000000000943      0x2ad libmsp430_obc.a(port.o)
 .debug_abbrev  0x0000000000000bf0      0x437 libmsp430_obc.a(queue.o)
 .debug_abbrev  0x0000000000001027      0x1ce libmsp430_obc.a(state_handler_entrypoint_vm_if.o)
 .debug_abbrev  0x00000000000011f5      0x484 libmsp430_obc.a(tasks.o)
 .debug_abbrev  0x0000000000001679      0x228 libmsp430_obc.a(tc_provider_vm_if.o)
 .debug_abbrev  0x00000000000018a1      0x1dc libmsp430_obc.a(tc_validation_vm_if.o)
 .debug_abbrev  0x0000000000001a7d      0x1e4 libmsp430_obc.a(thread_state_handler_entrypoint_poll_aoi.o)
 .debug_abbrev  0x0000000000001c61      0x1e4 libmsp430_obc.a(thread_state_handler_entrypoint_poll_mcp.o)
 .debug_abbrev  0x0000000000001e45      0x1e4 libmsp430_obc.a(thread_state_handler_entrypoint_toggle_pwr.o)
 .debug_abbrev  0x0000000000002029      0x172 libmsp430_obc.a(thread_state_handler_entrypoint_trig_aoi.o)
 .debug_abbrev  0x000000000000219b      0x172 libmsp430_obc.a(thread_state_handler_entrypoint_trig_mcp.o)
 .debug_abbrev  0x000000000000230d      0x172 libmsp430_obc.a(thread_state_handler_entrypoint_trig_pwr.o)
 .debug_abbrev  0x000000000000247f      0x43c libmsp430_obc.a(timers.o)
 .debug_abbrev  0x00000000000028bb      0x1dc libmsp430_obc.a(tm_collection_vm_if.o)
 .debug_abbrev  0x0000000000002a97      0x22a libmsp430_obc.a(tm_provider_vm_if.o)
 .debug_abbrev  0x0000000000002cc1      0x291 libmsp430_obc.a(transport.o)
 .debug_abbrev  0x0000000000002f52      0x335 libmsp430_obc.a(State_Handler_Entrypoint.o)
 .debug_abbrev  0x0000000000003287      0x1d8 libmsp430_obc.a(drivers_config.o)
 .debug_abbrev  0x000000000000345f      0x220 libmsp430_obc.a(list.o)
 .debug_abbrev  0x000000000000367f      0x1db libmsp430_obc.a(loc_provider.o)
 .debug_abbrev  0x000000000000385a      0x2ab libmsp430_obc.a(msp430_obc_interface.o)
 .debug_abbrev  0x0000000000003b05      0x21d libmsp430_obc.a(state_handler_entrypoint_invoke_ri.o)
 .debug_abbrev  0x0000000000003d22       0xf1 libmsp430_obc.a(tc_provider.o)
 .debug_abbrev  0x0000000000003e13      0x167 libmsp430_obc.a(tc_validation.o)
 .debug_abbrev  0x0000000000003f7a       0x95 libmsp430_obc.a(tm_collection.o)
 .debug_abbrev  0x000000000000400f       0xc0 libmsp430_obc.a(tm_provider.o)
 .debug_abbrev  0x00000000000040cf       0x12 /opt/msp430-gcc/bin/../lib/gcc/msp430-elf/8.3.1/../../../../msp430-elf/lib/large/full-memory-range/libnosys.a(ciosyscalls.o)
 .debug_abbrev  0x00000000000040e1      0x25b /opt/msp430-gcc/bin/../lib/gcc/msp430-elf/8.3.1/../../../../msp430-elf/lib/large/full-memory-range/libnosys.a(write.o)
 .debug_abbrev  0x000000000000433c      0x177 /opt/msp430-gcc/bin/../lib/gcc/msp430-elf/8.3.1/../../../../msp430-elf/lib/large/full-memory-range/libnosys.a(sbrk.o)
 .debug_abbrev  0x00000000000044b3       0x14 /opt/msp430-gcc/bin/../lib/gcc/msp430-elf/8.3.1/../../../../msp430-elf/lib/large/full-memory-range/libnosys.a(cio.o)
 .debug_abbrev  0x00000000000044c7       0x4f /opt/msp430-gcc/bin/../lib/gcc/msp430-elf/8.3.1/../../../../msp430-elf/lib/large/full-memory-range/libnosys.a(exit.o)

.debug_line     0x0000000000000000     0xaf6b
 *(.debug_line .debug_line.* .debug_line_end)
 .debug_line    0x0000000000000000      0x253 main.o
 .debug_line.either.text.vApplicationStackOverflowHook
                0x0000000000000253       0x4c main.o
 .debug_line.either.text.vApplicationSetupTimerInterrupt
                0x000000000000029f       0x9e main.o
 .debug_line.either.text.vApplicationGetIdleTaskMemory
                0x000000000000033d       0x50 main.o
 .debug_line.either.text.vApplicationGetTimerTaskMemory
                0x000000000000038d       0x50 main.o
 .debug_line.text.startup.main
                0x00000000000003dd      0x269 main.o
 .debug_line_end
                0x0000000000000646        0x0 main.o
 .debug_line    0x0000000000000646      0x1c8 libmsp430_obc.a(loc_provider_vm_if.o)
 .debug_line.either.text.init_loc_provider
                0x000000000000080e       0x59 libmsp430_obc.a(loc_provider_vm_if.o)
 .debug_line.either.text.loc_provider_request_loc
                0x0000000000000867       0x29 libmsp430_obc.a(loc_provider_vm_if.o)
 .debug_line_end
                0x0000000000000890        0x0 libmsp430_obc.a(loc_provider_vm_if.o)
 .debug_line    0x0000000000000890      0x320 libmsp430_obc.a(msp430_eusci_a_serial_minimal.o)
 .debug_line.either.text.uart_setup_baudrate.part.3
                0x0000000000000bb0       0x5a libmsp430_obc.a(msp430_eusci_a_serial_minimal.o)
 .debug_line.either.text.uart_putc
                0x0000000000000c0a       0x90 libmsp430_obc.a(msp430_eusci_a_serial_minimal.o)
 .debug_line.either.text.msp430_eusci_a_serial_minimal_sender
                0x0000000000000c9a      0x130 libmsp430_obc.a(msp430_eusci_a_serial_minimal.o)
 .debug_line.lowtext
                0x0000000000000dca      0x28f libmsp430_obc.a(msp430_eusci_a_serial_minimal.o)
 .debug_line.either.text.process_packet
                0x0000000000001059       0x68 libmsp430_obc.a(msp430_eusci_a_serial_minimal.o)
 .debug_line.either.text.msp430_eusci_a_serial_minimal_poller
                0x00000000000010c1      0x219 libmsp430_obc.a(msp430_eusci_a_serial_minimal.o)
 .debug_line.either.text.msp430_eusci_a_serial_minimal_init
                0x00000000000012da      0x494 libmsp430_obc.a(msp430_eusci_a_serial_minimal.o)
 .debug_line_end
                0x000000000000176e        0x0 libmsp430_obc.a(msp430_eusci_a_serial_minimal.o)
 .debug_line    0x000000000000176e      0x21f libmsp430_obc.a(port.o)
 .debug_line.either.text.pxPortInitialiseStack
                0x000000000000198d       0xb4 libmsp430_obc.a(port.o)
 .debug_line.either.text.xPortStartScheduler
                0x0000000000001a41       0x40 libmsp430_obc.a(port.o)
 .debug_line.either.text.vPortYield
                0x0000000000001a81       0x49 libmsp430_obc.a(port.o)
 .debug_line.either.text.vPortPreemptiveTickISR
                0x0000000000001aca       0x6c libmsp430_obc.a(port.o)
 .debug_line.lowtext
                0x0000000000001b36       0x2a libmsp430_obc.a(port.o)
 .debug_line_end
                0x0000000000001b60        0x0 libmsp430_obc.a(port.o)
 .debug_line    0x0000000000001b60      0x229 libmsp430_obc.a(queue.o)
 .debug_line.either.text.prvCopyDataToQueue
                0x0000000000001d89      0x19a libmsp430_obc.a(queue.o)
 .debug_line.either.text.prvCopyDataFromQueue
                0x0000000000001f23       0x8c libmsp430_obc.a(queue.o)
 .debug_line.either.text.prvUnlockQueue
                0x0000000000001faf      0x268 libmsp430_obc.a(queue.o)
 .debug_line.either.text.prvIsQueueEmpty
                0x0000000000002217       0xa8 libmsp430_obc.a(queue.o)
 .debug_line.either.text.xQueueGenericReset
                0x00000000000022bf      0x235 libmsp430_obc.a(queue.o)
 .debug_line.either.text.xQueueGenericCreateStatic
                0x00000000000024f4      0x259 libmsp430_obc.a(queue.o)
 .debug_line.either.text.xQueueGenericSend
                0x000000000000274d      0x556 libmsp430_obc.a(queue.o)
 .debug_line.either.text.xQueueCreateMutexStatic
                0x0000000000002ca3       0xb8 libmsp430_obc.a(queue.o)
 .debug_line.either.text.xQueueGenericSendFromISR
                0x0000000000002d5b      0x212 libmsp430_obc.a(queue.o)
 .debug_line.either.text.xQueueGiveFromISR
                0x0000000000002f6d      0x214 libmsp430_obc.a(queue.o)
 .debug_line.either.text.xQueueReceive
                0x0000000000003181      0x49d libmsp430_obc.a(queue.o)
 .debug_line.either.text.xQueueSemaphoreTake
                0x000000000000361e      0x66b libmsp430_obc.a(queue.o)
 .debug_line.either.text.vQueueWaitForMessageRestricted
                0x0000000000003c89       0xfc libmsp430_obc.a(queue.o)
 .debug_line_end
                0x0000000000003d85        0x0 libmsp430_obc.a(queue.o)
 .debug_line    0x0000000000003d85      0x143 libmsp430_obc.a(state_handler_entrypoint_vm_if.o)
 .debug_line.either.text.init_state_handler_entrypoint
                0x0000000000003ec8       0xbb libmsp430_obc.a(state_handler_entrypoint_vm_if.o)
 .debug_line.either.text.state_handler_entrypoint_poll_aoi
                0x0000000000003f83       0x29 libmsp430_obc.a(state_handler_entrypoint_vm_if.o)
 .debug_line.either.text.state_handler_entrypoint_poll_mcp
                0x0000000000003fac       0x29 libmsp430_obc.a(state_handler_entrypoint_vm_if.o)
 .debug_line.either.text.state_handler_entrypoint_toggle_pwr
                0x0000000000003fd5       0x2a libmsp430_obc.a(state_handler_entrypoint_vm_if.o)
 .debug_line.either.text.state_handler_entrypoint_trig_aoi
                0x0000000000003fff       0x2a libmsp430_obc.a(state_handler_entrypoint_vm_if.o)
 .debug_line.either.text.state_handler_entrypoint_trig_mcp
                0x0000000000004029       0x2a libmsp430_obc.a(state_handler_entrypoint_vm_if.o)
 .debug_line.either.text.state_handler_entrypoint_trig_pwr
                0x0000000000004053       0x2a libmsp430_obc.a(state_handler_entrypoint_vm_if.o)
 .debug_line_end
                0x000000000000407d        0x0 libmsp430_obc.a(state_handler_entrypoint_vm_if.o)
 .debug_line    0x000000000000407d      0x244 libmsp430_obc.a(tasks.o)
 .debug_line.either.text.prvIdleTask
                0x00000000000042c1       0x71 libmsp430_obc.a(tasks.o)
 .debug_line.either.text.prvResetNextTaskUnblockTime
                0x0000000000004332       0x88 libmsp430_obc.a(tasks.o)
 .debug_line.either.text.prvAddCurrentTaskToDelayedList.isra.2
                0x00000000000043ba       0xd3 libmsp430_obc.a(tasks.o)
 .debug_line.either.text.xTaskCreateStatic
                0x000000000000448d      0x4d5 libmsp430_obc.a(tasks.o)
 .debug_line.either.text.vTaskStartScheduler
                0x0000000000004962      0x14d libmsp430_obc.a(tasks.o)
 .debug_line.either.text.vTaskSuspendAll
                0x0000000000004aaf       0x2c libmsp430_obc.a(tasks.o)
 .debug_line.either.text.xTaskGetTickCount
                0x0000000000004adb       0xb4 libmsp430_obc.a(tasks.o)
 .debug_line.either.text.xTaskIncrementTick
                0x0000000000004b8f      0x2ff libmsp430_obc.a(tasks.o)
 .debug_line.either.text.xTaskResumeAll
                0x0000000000004e8e      0x2d0 libmsp430_obc.a(tasks.o)
 .debug_line.either.text.vTaskSwitchContext
                0x000000000000515e      0x18c libmsp430_obc.a(tasks.o)
 .debug_line.either.text.vTaskPlaceOnEventList
                0x00000000000052ea       0x7c libmsp430_obc.a(tasks.o)
 .debug_line.either.text.vTaskPlaceOnEventListRestricted
                0x0000000000005366       0x9e libmsp430_obc.a(tasks.o)
 .debug_line.either.text.xTaskRemoveFromEventList
                0x0000000000005404      0x162 libmsp430_obc.a(tasks.o)
 .debug_line.either.text.vTaskInternalSetTimeOutState
                0x0000000000005566       0x3e libmsp430_obc.a(tasks.o)
 .debug_line.either.text.xTaskCheckForTimeOut
                0x00000000000055a4      0x220 libmsp430_obc.a(tasks.o)
 .debug_line.either.text.vTaskMissedYield
                0x00000000000057c4       0x2c libmsp430_obc.a(tasks.o)
 .debug_line.either.text.xTaskGetSchedulerState
                0x00000000000057f0       0x7e libmsp430_obc.a(tasks.o)
 .debug_line.either.text.xTaskPriorityInherit
                0x000000000000586e      0x163 libmsp430_obc.a(tasks.o)
 .debug_line.either.text.xTaskPriorityDisinherit
                0x00000000000059d1      0x1d1 libmsp430_obc.a(tasks.o)
 .debug_line.either.text.vTaskPriorityDisinheritAfterTimeout
                0x0000000000005ba2      0x1e4 libmsp430_obc.a(tasks.o)
 .debug_line.either.text.pvTaskIncrementMutexHeldCount
                0x0000000000005d86       0x58 libmsp430_obc.a(tasks.o)
 .debug_line_end
                0x0000000000005dde        0x0 libmsp430_obc.a(tasks.o)
 .debug_line    0x0000000000005dde      0x1c6 libmsp430_obc.a(tc_provider_vm_if.o)
 .debug_line.either.text.init_tc_provider
                0x0000000000005fa4       0x59 libmsp430_obc.a(tc_provider_vm_if.o)
 .debug_line.either.text.tc_provider_request_tc
                0x0000000000005ffd       0x29 libmsp430_obc.a(tc_provider_vm_if.o)
 .debug_line_end
                0x0000000000006026        0x0 libmsp430_obc.a(tc_provider_vm_if.o)
 .debug_line    0x0000000000006026      0x1b9 libmsp430_obc.a(tc_validation_vm_if.o)
 .debug_line.either.text.init_tc_validation
                0x00000000000061df       0x59 libmsp430_obc.a(tc_validation_vm_if.o)
 .debug_line_end
                0x0000000000006238        0x0 libmsp430_obc.a(tc_validation_vm_if.o)
 .debug_line    0x0000000000006238      0x225 libmsp430_obc.a(thread_state_handler_entrypoint_poll_aoi.o)
 .debug_line.either.text.prv_state_handler_entrypoint_poll_aoi_Timer_Callback
                0x000000000000645d       0x3b libmsp430_obc.a(thread_state_handler_entrypoint_poll_aoi.o)
 .debug_line.either.text.prv_state_handler_entrypoint_poll_aoi_Task
                0x0000000000006498       0x8d libmsp430_obc.a(thread_state_handler_entrypoint_poll_aoi.o)
 .debug_line_end
                0x0000000000006525        0x0 libmsp430_obc.a(thread_state_handler_entrypoint_poll_aoi.o)
 .debug_line    0x0000000000006525      0x225 libmsp430_obc.a(thread_state_handler_entrypoint_poll_mcp.o)
 .debug_line.either.text.prv_state_handler_entrypoint_poll_mcp_Timer_Callback
                0x000000000000674a       0x3b libmsp430_obc.a(thread_state_handler_entrypoint_poll_mcp.o)
 .debug_line.either.text.prv_state_handler_entrypoint_poll_mcp_Task
                0x0000000000006785       0x8d libmsp430_obc.a(thread_state_handler_entrypoint_poll_mcp.o)
 .debug_line_end
                0x0000000000006812        0x0 libmsp430_obc.a(thread_state_handler_entrypoint_poll_mcp.o)
 .debug_line    0x0000000000006812      0x227 libmsp430_obc.a(thread_state_handler_entrypoint_toggle_pwr.o)
 .debug_line.either.text.prv_state_handler_entrypoint_toggle_pwr_Timer_Callback
                0x0000000000006a39       0x3b libmsp430_obc.a(thread_state_handler_entrypoint_toggle_pwr.o)
 .debug_line.either.text.prv_state_handler_entrypoint_toggle_pwr_Task
                0x0000000000006a74       0x8d libmsp430_obc.a(thread_state_handler_entrypoint_toggle_pwr.o)
 .debug_line_end
                0x0000000000006b01        0x0 libmsp430_obc.a(thread_state_handler_entrypoint_toggle_pwr.o)
 .debug_line    0x0000000000006b01      0x1f3 libmsp430_obc.a(thread_state_handler_entrypoint_trig_aoi.o)
 .debug_line.either.text.prv_state_handler_entrypoint_trig_aoi_Task
                0x0000000000006cf4       0x65 libmsp430_obc.a(thread_state_handler_entrypoint_trig_aoi.o)
 .debug_line_end
                0x0000000000006d59        0x0 libmsp430_obc.a(thread_state_handler_entrypoint_trig_aoi.o)
 .debug_line    0x0000000000006d59      0x1f3 libmsp430_obc.a(thread_state_handler_entrypoint_trig_mcp.o)
 .debug_line.either.text.prv_state_handler_entrypoint_trig_mcp_Task
                0x0000000000006f4c       0x65 libmsp430_obc.a(thread_state_handler_entrypoint_trig_mcp.o)
 .debug_line_end
                0x0000000000006fb1        0x0 libmsp430_obc.a(thread_state_handler_entrypoint_trig_mcp.o)
 .debug_line    0x0000000000006fb1      0x1f3 libmsp430_obc.a(thread_state_handler_entrypoint_trig_pwr.o)
 .debug_line.either.text.prv_state_handler_entrypoint_trig_pwr_Task
                0x00000000000071a4       0x65 libmsp430_obc.a(thread_state_handler_entrypoint_trig_pwr.o)
 .debug_line_end
                0x0000000000007209        0x0 libmsp430_obc.a(thread_state_handler_entrypoint_trig_pwr.o)
 .debug_line    0x0000000000007209      0x236 libmsp430_obc.a(timers.o)
 .debug_line.either.text.prvInsertTimerInActiveList
                0x000000000000743f       0xb2 libmsp430_obc.a(timers.o)
 .debug_line.either.text.prvCheckForValidListAndQueue
                0x00000000000074f1       0xf6 libmsp430_obc.a(timers.o)
 .debug_line.either.text.xTimerCreateTimerTask
                0x00000000000075e7       0xc8 libmsp430_obc.a(timers.o)
 .debug_line.either.text.xTimerCreateStatic
                0x00000000000076af      0x1b2 libmsp430_obc.a(timers.o)
 .debug_line.either.text.xTimerGenericCommand
                0x0000000000007861      0x146 libmsp430_obc.a(timers.o)
 .debug_line.either.text.prvSwitchTimerLists
                0x00000000000079a7      0x171 libmsp430_obc.a(timers.o)
 .debug_line.either.text.prvTimerTask
                0x0000000000007b18      0x4d7 libmsp430_obc.a(timers.o)
 .debug_line_end
                0x0000000000007fef        0x0 libmsp430_obc.a(timers.o)
 .debug_line    0x0000000000007fef      0x1b7 libmsp430_obc.a(tm_collection_vm_if.o)
 .debug_line.either.text.init_tm_collection
                0x00000000000081a6       0x73 libmsp430_obc.a(tm_collection_vm_if.o)
 .debug_line_end
                0x0000000000008219        0x0 libmsp430_obc.a(tm_collection_vm_if.o)
 .debug_line    0x0000000000008219      0x1c6 libmsp430_obc.a(tm_provider_vm_if.o)
 .debug_line.either.text.init_tm_provider
                0x00000000000083df       0x59 libmsp430_obc.a(tm_provider_vm_if.o)
 .debug_line_end
                0x0000000000008438        0x0 libmsp430_obc.a(tm_provider_vm_if.o)
 .debug_line    0x0000000000008438      0x2dd libmsp430_obc.a(transport.o)
 .debug_line.either.text.register_remote_transport_func
                0x0000000000008715       0x2b libmsp430_obc.a(transport.o)
 .debug_line.either.text.process_incomming_message
                0x0000000000008740       0xb7 libmsp430_obc.a(transport.o)
 .debug_line.either.text.deliver_to_gui_send_tm_aoi
                0x00000000000087f7       0x3d libmsp430_obc.a(transport.o)
 .debug_line.either.text.deliver_to_gui_send_tm_mcp
                0x0000000000008834       0x3e libmsp430_obc.a(transport.o)
 .debug_line_end
                0x0000000000008872        0x0 libmsp430_obc.a(transport.o)
 .debug_line    0x0000000000008872      0x203 libmsp430_obc.a(State_Handler_Entrypoint.o)
 .debug_line.either.text.runTransitionState_Handler_Entrypoint.part.0
                0x0000000000008a75      0x371 libmsp430_obc.a(State_Handler_Entrypoint.o)
 .debug_line.either.text.CInitState_Handler_Entrypoint
                0x0000000000008de6       0x31 libmsp430_obc.a(State_Handler_Entrypoint.o)
 .debug_line.either.text.state_handler_entrypoint_PI_poll_aoi
                0x0000000000008e17       0x3b libmsp430_obc.a(State_Handler_Entrypoint.o)
 .debug_line.either.text.state_handler_entrypoint_PI_poll_mcp
                0x0000000000008e52       0x3b libmsp430_obc.a(State_Handler_Entrypoint.o)
 .debug_line.either.text.state_handler_entrypoint_PI_toggle_pwr
                0x0000000000008e8d       0x6d libmsp430_obc.a(State_Handler_Entrypoint.o)
 .debug_line.either.text.state_handler_entrypoint_PI_trig_pwr
                0x0000000000008efa       0x73 libmsp430_obc.a(State_Handler_Entrypoint.o)
 .debug_line_end
                0x0000000000008f6d        0x0 libmsp430_obc.a(State_Handler_Entrypoint.o)
 .debug_line    0x0000000000008f6d      0x198 libmsp430_obc.a(drivers_config.o)
 .debug_line_end
                0x0000000000009105        0x0 libmsp430_obc.a(drivers_config.o)
 .debug_line    0x0000000000009105      0x1f7 libmsp430_obc.a(list.o)
 .debug_line.either.text.vListInitialise
                0x00000000000092fc       0x8b libmsp430_obc.a(list.o)
 .debug_line.either.text.vListInitialiseItem
                0x0000000000009387       0x3d libmsp430_obc.a(list.o)
 .debug_line.either.text.vListInsertEnd
                0x00000000000093c4       0xae libmsp430_obc.a(list.o)
 .debug_line.either.text.vListInsert
                0x0000000000009472      0x116 libmsp430_obc.a(list.o)
 .debug_line.either.text.uxListRemove
                0x0000000000009588       0xc0 libmsp430_obc.a(list.o)
 .debug_line_end
                0x0000000000009648        0x0 libmsp430_obc.a(list.o)
 .debug_line    0x0000000000009648      0x1bc libmsp430_obc.a(loc_provider.o)
 .debug_line.either.text.loc_provider_startup
                0x0000000000009804       0x23 libmsp430_obc.a(loc_provider.o)
 .debug_line.either.text.loc_provider_PI_request_loc
                0x0000000000009827       0x61 libmsp430_obc.a(loc_provider.o)
 .debug_line_end
                0x0000000000009888        0x0 libmsp430_obc.a(loc_provider.o)
 .debug_line    0x0000000000009888      0x498 libmsp430_obc.a(msp430_obc_interface.o)
 .debug_line.either.text.vm_state_handler_entrypoint_request_loc
                0x0000000000009d20       0x23 libmsp430_obc.a(msp430_obc_interface.o)
 .debug_line.either.text.vm_state_handler_entrypoint_request_tc
                0x0000000000009d43       0x23 libmsp430_obc.a(msp430_obc_interface.o)
 .debug_line.either.text.vm_state_handler_entrypoint_send_tm_aoi
                0x0000000000009d66       0x67 libmsp430_obc.a(msp430_obc_interface.o)
 .debug_line.either.text.vm_state_handler_entrypoint_send_tm_mcp
                0x0000000000009dcd       0x68 libmsp430_obc.a(msp430_obc_interface.o)
 .debug_line.either.text.call_state_handler_entrypoint_poll_aoi
                0x0000000000009e35       0x7a libmsp430_obc.a(msp430_obc_interface.o)
 .debug_line.either.text.call_state_handler_entrypoint_poll_mcp
                0x0000000000009eaf       0x7a libmsp430_obc.a(msp430_obc_interface.o)
 .debug_line.either.text.call_state_handler_entrypoint_toggle_pwr
                0x0000000000009f29       0x7a libmsp430_obc.a(msp430_obc_interface.o)
 .debug_line.either.text.call_state_handler_entrypoint_trig_aoi
                0x0000000000009fa3       0x7a libmsp430_obc.a(msp430_obc_interface.o)
 .debug_line.either.text.call_state_handler_entrypoint_trig_mcp
                0x000000000000a01d       0x7a libmsp430_obc.a(msp430_obc_interface.o)
 .debug_line.either.text.call_state_handler_entrypoint_trig_pwr
                0x000000000000a097       0x7a libmsp430_obc.a(msp430_obc_interface.o)
 .debug_line_end
                0x000000000000a111        0x0 libmsp430_obc.a(msp430_obc_interface.o)
 .debug_line    0x000000000000a111      0x1e6 libmsp430_obc.a(state_handler_entrypoint_invoke_ri.o)
 .debug_line.either.text.state_handler_entrypoint_RI_request_loc
                0x000000000000a2f7       0x3b libmsp430_obc.a(state_handler_entrypoint_invoke_ri.o)
 .debug_line.either.text.state_handler_entrypoint_RI_request_tc
                0x000000000000a332       0x3b libmsp430_obc.a(state_handler_entrypoint_invoke_ri.o)
 .debug_line.either.text.state_handler_entrypoint_RI_send_tm_aoi
                0x000000000000a36d       0x2a libmsp430_obc.a(state_handler_entrypoint_invoke_ri.o)
 .debug_line.either.text.state_handler_entrypoint_RI_send_tm_mcp
                0x000000000000a397       0x2a libmsp430_obc.a(state_handler_entrypoint_invoke_ri.o)
 .debug_line_end
                0x000000000000a3c1        0x0 libmsp430_obc.a(state_handler_entrypoint_invoke_ri.o)
 .debug_line    0x000000000000a3c1      0x12e libmsp430_obc.a(tc_provider.o)
 .debug_line.either.text.tc_provider_startup
                0x000000000000a4ef       0x18 libmsp430_obc.a(tc_provider.o)
 .debug_line.either.text.tc_provider_PI_request_tc
                0x000000000000a507       0x61 libmsp430_obc.a(tc_provider.o)
 .debug_line_end
                0x000000000000a568        0x0 libmsp430_obc.a(tc_provider.o)
 .debug_line    0x000000000000a568      0x22f libmsp430_obc.a(tc_validation.o)
 .debug_line.either.text.tc_validation_startup
                0x000000000000a797       0x19 libmsp430_obc.a(tc_validation.o)
 .debug_line_end
                0x000000000000a7b0        0x0 libmsp430_obc.a(tc_validation.o)
 .debug_line    0x000000000000a7b0      0x11f libmsp430_obc.a(tm_collection.o)
 .debug_line.either.text.tm_collection_startup
                0x000000000000a8cf       0x18 libmsp430_obc.a(tm_collection.o)
 .debug_line_end
                0x000000000000a8e7        0x0 libmsp430_obc.a(tm_collection.o)
 .debug_line    0x000000000000a8e7      0x12e libmsp430_obc.a(tm_provider.o)
 .debug_line.either.text.tm_provider_startup
                0x000000000000aa15       0x18 libmsp430_obc.a(tm_provider.o)
 .debug_line_end
                0x000000000000aa2d        0x0 libmsp430_obc.a(tm_provider.o)
 .debug_line    0x000000000000aa2d       0x57 /opt/msp430-gcc/bin/../lib/gcc/msp430-elf/8.3.1/../../../../msp430-elf/lib/large/full-memory-range/libnosys.a(ciosyscalls.o)
 .debug_line.text.isatty
                0x000000000000aa84       0x16 /opt/msp430-gcc/bin/../lib/gcc/msp430-elf/8.3.1/../../../../msp430-elf/lib/large/full-memory-range/libnosys.a(ciosyscalls.o)
 .debug_line.text.getpid
                0x000000000000aa9a       0x16 /opt/msp430-gcc/bin/../lib/gcc/msp430-elf/8.3.1/../../../../msp430-elf/lib/large/full-memory-range/libnosys.a(ciosyscalls.o)
 .debug_line.text.open
                0x000000000000aab0       0x11 /opt/msp430-gcc/bin/../lib/gcc/msp430-elf/8.3.1/../../../../msp430-elf/lib/large/full-memory-range/libnosys.a(ciosyscalls.o)
 .debug_line.text.close
                0x000000000000aac1       0x11 /opt/msp430-gcc/bin/../lib/gcc/msp430-elf/8.3.1/../../../../msp430-elf/lib/large/full-memory-range/libnosys.a(ciosyscalls.o)
 .debug_line.text.read
                0x000000000000aad2       0x11 /opt/msp430-gcc/bin/../lib/gcc/msp430-elf/8.3.1/../../../../msp430-elf/lib/large/full-memory-range/libnosys.a(ciosyscalls.o)
 .debug_line.text.fstat
                0x000000000000aae3       0x11 /opt/msp430-gcc/bin/../lib/gcc/msp430-elf/8.3.1/../../../../msp430-elf/lib/large/full-memory-range/libnosys.a(ciosyscalls.o)
 .debug_line.text.lseek
                0x000000000000aaf4       0x11 /opt/msp430-gcc/bin/../lib/gcc/msp430-elf/8.3.1/../../../../msp430-elf/lib/large/full-memory-range/libnosys.a(ciosyscalls.o)
 .debug_line.text.kill
                0x000000000000ab05       0x11 /opt/msp430-gcc/bin/../lib/gcc/msp430-elf/8.3.1/../../../../msp430-elf/lib/large/full-memory-range/libnosys.a(ciosyscalls.o)
 .debug_line_end
                0x000000000000ab16        0x0 /opt/msp430-gcc/bin/../lib/gcc/msp430-elf/8.3.1/../../../../msp430-elf/lib/large/full-memory-range/libnosys.a(ciosyscalls.o)
 .debug_line    0x000000000000ab16      0x13f /opt/msp430-gcc/bin/../lib/gcc/msp430-elf/8.3.1/../../../../msp430-elf/lib/large/full-memory-range/libnosys.a(write.o)
 .debug_line.text.write
                0x000000000000ac55      0x14e /opt/msp430-gcc/bin/../lib/gcc/msp430-elf/8.3.1/../../../../msp430-elf/lib/large/full-memory-range/libnosys.a(write.o)
 .debug_line_end
                0x000000000000ada3        0x0 /opt/msp430-gcc/bin/../lib/gcc/msp430-elf/8.3.1/../../../../msp430-elf/lib/large/full-memory-range/libnosys.a(write.o)
 .debug_line    0x000000000000ada3       0x5e /opt/msp430-gcc/bin/../lib/gcc/msp430-elf/8.3.1/../../../../msp430-elf/lib/large/full-memory-range/libnosys.a(sbrk.o)
 .debug_line.text._sbrk
                0x000000000000ae01       0x8d /opt/msp430-gcc/bin/../lib/gcc/msp430-elf/8.3.1/../../../../msp430-elf/lib/large/full-memory-range/libnosys.a(sbrk.o)
 .debug_line_end
                0x000000000000ae8e        0x0 /opt/msp430-gcc/bin/../lib/gcc/msp430-elf/8.3.1/../../../../msp430-elf/lib/large/full-memory-range/libnosys.a(sbrk.o)
 .debug_line    0x000000000000ae8e       0x65 /opt/msp430-gcc/bin/../lib/gcc/msp430-elf/8.3.1/../../../../msp430-elf/lib/large/full-memory-range/libnosys.a(cio.o)
 .debug_line_end
                0x000000000000aef3        0x0 /opt/msp430-gcc/bin/../lib/gcc/msp430-elf/8.3.1/../../../../msp430-elf/lib/large/full-memory-range/libnosys.a(cio.o)
 .debug_line    0x000000000000aef3       0x50 /opt/msp430-gcc/bin/../lib/gcc/msp430-elf/8.3.1/../../../../msp430-elf/lib/large/full-memory-range/libnosys.a(exit.o)
 .debug_line.text.exit
                0x000000000000af43       0x28 /opt/msp430-gcc/bin/../lib/gcc/msp430-elf/8.3.1/../../../../msp430-elf/lib/large/full-memory-range/libnosys.a(exit.o)
 .debug_line_end
                0x000000000000af6b        0x0 /opt/msp430-gcc/bin/../lib/gcc/msp430-elf/8.3.1/../../../../msp430-elf/lib/large/full-memory-range/libnosys.a(exit.o)

.debug_frame    0x0000000000000000     0x1478
 *(.debug_frame)
 .debug_frame   0x0000000000000000       0x80 main.o
 .debug_frame   0x0000000000000080       0x34 libmsp430_obc.a(loc_provider_vm_if.o)
 .debug_frame   0x00000000000000b4      0x12c libmsp430_obc.a(msp430_eusci_a_serial_minimal.o)
 .debug_frame   0x00000000000001e0       0x94 libmsp430_obc.a(port.o)
 .debug_frame   0x0000000000000274      0x2e4 libmsp430_obc.a(queue.o)
 .debug_frame   0x0000000000000558       0x84 libmsp430_obc.a(state_handler_entrypoint_vm_if.o)
 .debug_frame   0x00000000000005dc      0x388 libmsp430_obc.a(tasks.o)
 .debug_frame   0x0000000000000964       0x34 libmsp430_obc.a(tc_provider_vm_if.o)
 .debug_frame   0x0000000000000998       0x34 libmsp430_obc.a(tc_validation_vm_if.o)
 .debug_frame   0x00000000000009cc       0x4c libmsp430_obc.a(thread_state_handler_entrypoint_poll_aoi.o)
 .debug_frame   0x0000000000000a18       0x4c libmsp430_obc.a(thread_state_handler_entrypoint_poll_mcp.o)
 .debug_frame   0x0000000000000a64       0x4c libmsp430_obc.a(thread_state_handler_entrypoint_toggle_pwr.o)
 .debug_frame   0x0000000000000ab0       0x34 libmsp430_obc.a(thread_state_handler_entrypoint_trig_aoi.o)
 .debug_frame   0x0000000000000ae4       0x34 libmsp430_obc.a(thread_state_handler_entrypoint_trig_mcp.o)
 .debug_frame   0x0000000000000b18       0x34 libmsp430_obc.a(thread_state_handler_entrypoint_trig_pwr.o)
 .debug_frame   0x0000000000000b4c      0x1c4 libmsp430_obc.a(timers.o)
 .debug_frame   0x0000000000000d10       0x34 libmsp430_obc.a(tm_collection_vm_if.o)
 .debug_frame   0x0000000000000d44       0x34 libmsp430_obc.a(tm_provider_vm_if.o)
 .debug_frame   0x0000000000000d78      0x118 libmsp430_obc.a(transport.o)
 .debug_frame   0x0000000000000e90       0xd8 libmsp430_obc.a(State_Handler_Entrypoint.o)
 .debug_frame   0x0000000000000f68       0x94 libmsp430_obc.a(list.o)
 .debug_frame   0x0000000000000ffc       0x34 libmsp430_obc.a(loc_provider.o)
 .debug_frame   0x0000000000001030      0x25c libmsp430_obc.a(msp430_obc_interface.o)
 .debug_frame   0x000000000000128c       0x84 libmsp430_obc.a(state_handler_entrypoint_invoke_ri.o)
 .debug_frame   0x0000000000001310       0x34 libmsp430_obc.a(tc_provider.o)
 .debug_frame   0x0000000000001344       0x34 libmsp430_obc.a(tc_validation.o)
 .debug_frame   0x0000000000001378       0x34 libmsp430_obc.a(tm_collection.o)
 .debug_frame   0x00000000000013ac       0x34 libmsp430_obc.a(tm_provider.o)
 .debug_frame   0x00000000000013e0       0x40 /opt/msp430-gcc/bin/../lib/gcc/msp430-elf/8.3.1/../../../../msp430-elf/lib/large/full-memory-range/libnosys.a(write.o)
 .debug_frame   0x0000000000001420       0x34 /opt/msp430-gcc/bin/../lib/gcc/msp430-elf/8.3.1/../../../../msp430-elf/lib/large/full-memory-range/libnosys.a(sbrk.o)
 .debug_frame   0x0000000000001454       0x24 /opt/msp430-gcc/bin/../lib/gcc/msp430-elf/8.3.1/../../../../msp430-elf/lib/large/full-memory-range/libnosys.a(exit.o)

.debug_str      0x0000000000000000     0x6ad1
 *(.debug_str)
 .debug_str     0x0000000000000000     0x2c0a main.o
                                       0x2c6b (size before relaxing)
 .debug_str     0x0000000000002c0a      0x52c libmsp430_obc.a(loc_provider_vm_if.o)
                                        0x74b (size before relaxing)
 .debug_str     0x0000000000003136      0x5fe libmsp430_obc.a(msp430_eusci_a_serial_minimal.o)
                                       0x2cfb (size before relaxing)
 .debug_str     0x0000000000003734      0x167 libmsp430_obc.a(port.o)
                                       0x2591 (size before relaxing)
 .debug_str     0x000000000000389b      0x658 libmsp430_obc.a(queue.o)
                                       0x2c69 (size before relaxing)
 .debug_str     0x0000000000003ef3      0x1de libmsp430_obc.a(state_handler_entrypoint_vm_if.o)
                                        0x8dc (size before relaxing)
 .debug_str     0x00000000000040d1      0x5fa libmsp430_obc.a(tasks.o)
                                       0x2e77 (size before relaxing)
 .debug_str     0x00000000000046cb      0x12b libmsp430_obc.a(tc_provider_vm_if.o)
                                        0x75b (size before relaxing)
 .debug_str     0x00000000000047f6       0xb2 libmsp430_obc.a(tc_validation_vm_if.o)
                                        0x6cc (size before relaxing)
 .debug_str     0x00000000000048a8      0x1f8 libmsp430_obc.a(thread_state_handler_entrypoint_poll_aoi.o)
                                       0x22df (size before relaxing)
 .debug_str     0x0000000000004aa0      0x151 libmsp430_obc.a(thread_state_handler_entrypoint_poll_mcp.o)
                                       0x22df (size before relaxing)
 .debug_str     0x0000000000004bf1      0x15d libmsp430_obc.a(thread_state_handler_entrypoint_toggle_pwr.o)
                                       0x22ed (size before relaxing)
 .debug_str     0x0000000000004d4e       0xbd libmsp430_obc.a(thread_state_handler_entrypoint_trig_aoi.o)
                                       0x2149 (size before relaxing)
 .debug_str     0x0000000000004e0b       0xbd libmsp430_obc.a(thread_state_handler_entrypoint_trig_mcp.o)
                                       0x2149 (size before relaxing)
 .debug_str     0x0000000000004ec8       0xbd libmsp430_obc.a(thread_state_handler_entrypoint_trig_pwr.o)
                                       0x2149 (size before relaxing)
 .debug_str     0x0000000000004f85      0x450 libmsp430_obc.a(timers.o)
                                       0x2ceb (size before relaxing)
 .debug_str     0x00000000000053d5       0xba libmsp430_obc.a(tm_collection_vm_if.o)
                                        0x6e5 (size before relaxing)
 .debug_str     0x000000000000548f      0x132 libmsp430_obc.a(tm_provider_vm_if.o)
                                        0x768 (size before relaxing)
 .debug_str     0x00000000000055c1      0x93e libmsp430_obc.a(transport.o)
                                       0x2fd6 (size before relaxing)
 .debug_str     0x0000000000005eff      0x1e2 libmsp430_obc.a(State_Handler_Entrypoint.o)
                                        0x9dc (size before relaxing)
 .debug_str     0x00000000000060e1       0x8b libmsp430_obc.a(drivers_config.o)
                                        0x825 (size before relaxing)
 .debug_str     0x000000000000616c       0x94 libmsp430_obc.a(list.o)
                                       0x254d (size before relaxing)
 .debug_str     0x0000000000006200       0x4f libmsp430_obc.a(loc_provider.o)
                                        0x6f4 (size before relaxing)
 .debug_str     0x000000000000624f      0x2c9 libmsp430_obc.a(msp430_obc_interface.o)
                                       0x2a64 (size before relaxing)
 .debug_str     0x0000000000006518       0xd6 libmsp430_obc.a(state_handler_entrypoint_invoke_ri.o)
                                        0x9b3 (size before relaxing)
 .debug_str     0x00000000000065ee       0x48 libmsp430_obc.a(tc_provider.o)
                                        0x2f7 (size before relaxing)
 .debug_str     0x0000000000006636      0x2af libmsp430_obc.a(tc_validation.o)
                                        0x528 (size before relaxing)
 .debug_str     0x00000000000068e5       0x4c libmsp430_obc.a(tm_collection.o)
                                        0x255 (size before relaxing)
 .debug_str     0x0000000000006931       0x48 libmsp430_obc.a(tm_provider.o)
                                        0x2d5 (size before relaxing)
 .debug_str     0x0000000000006979       0xe0 /opt/msp430-gcc/bin/../lib/gcc/msp430-elf/8.3.1/../../../../msp430-elf/lib/large/full-memory-range/libnosys.a(write.o)
                                        0x5bf (size before relaxing)
 .debug_str     0x0000000000006a59       0x41 /opt/msp430-gcc/bin/../lib/gcc/msp430-elf/8.3.1/../../../../msp430-elf/lib/large/full-memory-range/libnosys.a(sbrk.o)
                                         0xba (size before relaxing)
 .debug_str     0x0000000000006a9a       0x37 /opt/msp430-gcc/bin/../lib/gcc/msp430-elf/8.3.1/../../../../msp430-elf/lib/large/full-memory-range/libnosys.a(exit.o)
                                         0xaa (size before relaxing)

.debug_loc      0x0000000000000000     0x33af
 *(.debug_loc)
 .debug_loc     0x0000000000000000       0x42 libmsp430_obc.a(loc_provider_vm_if.o)
 .debug_loc     0x0000000000000042      0x5b7 libmsp430_obc.a(msp430_eusci_a_serial_minimal.o)
 .debug_loc     0x00000000000005f9       0xb9 libmsp430_obc.a(port.o)
 .debug_loc     0x00000000000006b2      0xe8c libmsp430_obc.a(queue.o)
 .debug_loc     0x000000000000153e      0x9ad libmsp430_obc.a(tasks.o)
 .debug_loc     0x0000000000001eeb       0x42 libmsp430_obc.a(tc_provider_vm_if.o)
 .debug_loc     0x0000000000001f2d       0x55 libmsp430_obc.a(thread_state_handler_entrypoint_poll_aoi.o)
 .debug_loc     0x0000000000001f82       0x55 libmsp430_obc.a(thread_state_handler_entrypoint_poll_mcp.o)
 .debug_loc     0x0000000000001fd7       0x55 libmsp430_obc.a(thread_state_handler_entrypoint_toggle_pwr.o)
 .debug_loc     0x000000000000202c       0x34 libmsp430_obc.a(thread_state_handler_entrypoint_trig_aoi.o)
 .debug_loc     0x0000000000002060       0x34 libmsp430_obc.a(thread_state_handler_entrypoint_trig_mcp.o)
 .debug_loc     0x0000000000002094       0x34 libmsp430_obc.a(thread_state_handler_entrypoint_trig_pwr.o)
 .debug_loc     0x00000000000020c8      0x7e4 libmsp430_obc.a(timers.o)
 .debug_loc     0x00000000000028ac       0x8f libmsp430_obc.a(tm_provider_vm_if.o)
 .debug_loc     0x000000000000293b      0x19c libmsp430_obc.a(transport.o)
 .debug_loc     0x0000000000002ad7      0x1e1 libmsp430_obc.a(State_Handler_Entrypoint.o)
 .debug_loc     0x0000000000002cb8       0x7b libmsp430_obc.a(list.o)
 .debug_loc     0x0000000000002d33      0x474 libmsp430_obc.a(msp430_obc_interface.o)
 .debug_loc     0x00000000000031a7       0x84 libmsp430_obc.a(state_handler_entrypoint_invoke_ri.o)
 .debug_loc     0x000000000000322b      0x115 /opt/msp430-gcc/bin/../lib/gcc/msp430-elf/8.3.1/../../../../msp430-elf/lib/large/full-memory-range/libnosys.a(write.o)
 .debug_loc     0x0000000000003340       0x6f /opt/msp430-gcc/bin/../lib/gcc/msp430-elf/8.3.1/../../../../msp430-elf/lib/large/full-memory-range/libnosys.a(sbrk.o)

.debug_macinfo
 *(.debug_macinfo)

.debug_weaknames
 *(.debug_weaknames)

.debug_funcnames
 *(.debug_funcnames)

.debug_typenames
 *(.debug_typenames)

.debug_varnames
 *(.debug_varnames)

.debug_pubtypes
 *(.debug_pubtypes)

.debug_ranges   0x0000000000000000      0xb98
 *(.debug_ranges)
 .debug_ranges  0x0000000000000000       0x30 main.o
 .debug_ranges  0x0000000000000030       0x18 libmsp430_obc.a(loc_provider_vm_if.o)
 .debug_ranges  0x0000000000000048      0x148 libmsp430_obc.a(msp430_eusci_a_serial_minimal.o)
 .debug_ranges  0x0000000000000190       0x38 libmsp430_obc.a(port.o)
 .debug_ranges  0x00000000000001c8      0x2a0 libmsp430_obc.a(queue.o)
 .debug_ranges  0x0000000000000468       0x40 libmsp430_obc.a(state_handler_entrypoint_vm_if.o)
 .debug_ranges  0x00000000000004a8      0x198 libmsp430_obc.a(tasks.o)
 .debug_ranges  0x0000000000000640       0x18 libmsp430_obc.a(tc_provider_vm_if.o)
 .debug_ranges  0x0000000000000658       0x18 libmsp430_obc.a(tc_validation_vm_if.o)
 .debug_ranges  0x0000000000000670       0x30 libmsp430_obc.a(thread_state_handler_entrypoint_poll_aoi.o)
 .debug_ranges  0x00000000000006a0       0x30 libmsp430_obc.a(thread_state_handler_entrypoint_poll_mcp.o)
 .debug_ranges  0x00000000000006d0       0x30 libmsp430_obc.a(thread_state_handler_entrypoint_toggle_pwr.o)
 .debug_ranges  0x0000000000000700       0x28 libmsp430_obc.a(thread_state_handler_entrypoint_trig_aoi.o)
 .debug_ranges  0x0000000000000728       0x28 libmsp430_obc.a(thread_state_handler_entrypoint_trig_mcp.o)
 .debug_ranges  0x0000000000000750       0x28 libmsp430_obc.a(thread_state_handler_entrypoint_trig_pwr.o)
 .debug_ranges  0x0000000000000778       0xe8 libmsp430_obc.a(timers.o)
 .debug_ranges  0x0000000000000860       0x18 libmsp430_obc.a(tm_collection_vm_if.o)
 .debug_ranges  0x0000000000000878       0x18 libmsp430_obc.a(tm_provider_vm_if.o)
 .debug_ranges  0x0000000000000890       0x58 libmsp430_obc.a(transport.o)
 .debug_ranges  0x00000000000008e8       0x78 libmsp430_obc.a(State_Handler_Entrypoint.o)
 .debug_ranges  0x0000000000000960       0x30 libmsp430_obc.a(list.o)
 .debug_ranges  0x0000000000000990       0x18 libmsp430_obc.a(loc_provider.o)
 .debug_ranges  0x00000000000009a8       0xa0 libmsp430_obc.a(msp430_obc_interface.o)
 .debug_ranges  0x0000000000000a48       0x38 libmsp430_obc.a(state_handler_entrypoint_invoke_ri.o)
 .debug_ranges  0x0000000000000a80       0x18 libmsp430_obc.a(tc_provider.o)
 .debug_ranges  0x0000000000000a98       0x10 libmsp430_obc.a(tc_validation.o)
 .debug_ranges  0x0000000000000aa8       0x10 libmsp430_obc.a(tm_collection.o)
 .debug_ranges  0x0000000000000ab8       0x18 libmsp430_obc.a(tm_provider.o)
 .debug_ranges  0x0000000000000ad0       0x50 /opt/msp430-gcc/bin/../lib/gcc/msp430-elf/8.3.1/../../../../msp430-elf/lib/large/full-memory-range/libnosys.a(ciosyscalls.o)
 .debug_ranges  0x0000000000000b20       0x58 /opt/msp430-gcc/bin/../lib/gcc/msp430-elf/8.3.1/../../../../msp430-elf/lib/large/full-memory-range/libnosys.a(write.o)
 .debug_ranges  0x0000000000000b78       0x10 /opt/msp430-gcc/bin/../lib/gcc/msp430-elf/8.3.1/../../../../msp430-elf/lib/large/full-memory-range/libnosys.a(sbrk.o)
 .debug_ranges  0x0000000000000b88       0x10 /opt/msp430-gcc/bin/../lib/gcc/msp430-elf/8.3.1/../../../../msp430-elf/lib/large/full-memory-range/libnosys.a(exit.o)

.debug_macro
 *(.debug_macro)

/DISCARD/
 *(.note.GNU-stack)
                [!provide]                        PROVIDE (ADC12CTL0, 0x800)
                [!provide]                        PROVIDE (ADC12CTL0_L, 0x800)
                [!provide]                        PROVIDE (ADC12CTL0_H, 0x801)
                [!provide]                        PROVIDE (ADC12CTL1, 0x802)
                [!provide]                        PROVIDE (ADC12CTL1_L, 0x802)
                [!provide]                        PROVIDE (ADC12CTL1_H, 0x803)
                [!provide]                        PROVIDE (ADC12CTL2, 0x804)
                [!provide]                        PROVIDE (ADC12CTL2_L, 0x804)
                [!provide]                        PROVIDE (ADC12CTL2_H, 0x805)
                [!provide]                        PROVIDE (ADC12CTL3, 0x806)
                [!provide]                        PROVIDE (ADC12CTL3_L, 0x806)
                [!provide]                        PROVIDE (ADC12CTL3_H, 0x807)
                [!provide]                        PROVIDE (ADC12LO, 0x808)
                [!provide]                        PROVIDE (ADC12LO_L, 0x808)
                [!provide]                        PROVIDE (ADC12LO_H, 0x809)
                [!provide]                        PROVIDE (ADC12HI, 0x80a)
                [!provide]                        PROVIDE (ADC12HI_L, 0x80a)
                [!provide]                        PROVIDE (ADC12HI_H, 0x80b)
                [!provide]                        PROVIDE (ADC12IFGR0, 0x80c)
                [!provide]                        PROVIDE (ADC12IFGR0_L, 0x80c)
                [!provide]                        PROVIDE (ADC12IFGR0_H, 0x80d)
                [!provide]                        PROVIDE (ADC12IFGR1, 0x80e)
                [!provide]                        PROVIDE (ADC12IFGR1_L, 0x80e)
                [!provide]                        PROVIDE (ADC12IFGR1_H, 0x80f)
                [!provide]                        PROVIDE (ADC12IFGR2, 0x810)
                [!provide]                        PROVIDE (ADC12IFGR2_L, 0x810)
                [!provide]                        PROVIDE (ADC12IFGR2_H, 0x811)
                [!provide]                        PROVIDE (ADC12IER0, 0x812)
                [!provide]                        PROVIDE (ADC12IER0_L, 0x812)
                [!provide]                        PROVIDE (ADC12IER0_H, 0x813)
                [!provide]                        PROVIDE (ADC12IER1, 0x814)
                [!provide]                        PROVIDE (ADC12IER1_L, 0x814)
                [!provide]                        PROVIDE (ADC12IER1_H, 0x815)
                [!provide]                        PROVIDE (ADC12IER2, 0x816)
                [!provide]                        PROVIDE (ADC12IER2_L, 0x816)
                [!provide]                        PROVIDE (ADC12IER2_H, 0x817)
                [!provide]                        PROVIDE (ADC12IV, 0x818)
                [!provide]                        PROVIDE (ADC12IV_L, 0x818)
                [!provide]                        PROVIDE (ADC12IV_H, 0x819)
                [!provide]                        PROVIDE (ADC12MCTL0, 0x820)
                [!provide]                        PROVIDE (ADC12MCTL0_L, 0x820)
                [!provide]                        PROVIDE (ADC12MCTL0_H, 0x821)
                [!provide]                        PROVIDE (ADC12MCTL1, 0x822)
                [!provide]                        PROVIDE (ADC12MCTL1_L, 0x822)
                [!provide]                        PROVIDE (ADC12MCTL1_H, 0x823)
                [!provide]                        PROVIDE (ADC12MCTL2, 0x824)
                [!provide]                        PROVIDE (ADC12MCTL2_L, 0x824)
                [!provide]                        PROVIDE (ADC12MCTL2_H, 0x825)
                [!provide]                        PROVIDE (ADC12MCTL3, 0x826)
                [!provide]                        PROVIDE (ADC12MCTL3_L, 0x826)
                [!provide]                        PROVIDE (ADC12MCTL3_H, 0x827)
                [!provide]                        PROVIDE (ADC12MCTL4, 0x828)
                [!provide]                        PROVIDE (ADC12MCTL4_L, 0x828)
                [!provide]                        PROVIDE (ADC12MCTL4_H, 0x829)
                [!provide]                        PROVIDE (ADC12MCTL5, 0x82a)
                [!provide]                        PROVIDE (ADC12MCTL5_L, 0x82a)
                [!provide]                        PROVIDE (ADC12MCTL5_H, 0x82b)
                [!provide]                        PROVIDE (ADC12MCTL6, 0x82c)
                [!provide]                        PROVIDE (ADC12MCTL6_L, 0x82c)
                [!provide]                        PROVIDE (ADC12MCTL6_H, 0x82d)
                [!provide]                        PROVIDE (ADC12MCTL7, 0x82e)
                [!provide]                        PROVIDE (ADC12MCTL7_L, 0x82e)
                [!provide]                        PROVIDE (ADC12MCTL7_H, 0x82f)
                [!provide]                        PROVIDE (ADC12MCTL8, 0x830)
                [!provide]                        PROVIDE (ADC12MCTL8_L, 0x830)
                [!provide]                        PROVIDE (ADC12MCTL8_H, 0x831)
                [!provide]                        PROVIDE (ADC12MCTL9, 0x832)
                [!provide]                        PROVIDE (ADC12MCTL9_L, 0x832)
                [!provide]                        PROVIDE (ADC12MCTL9_H, 0x833)
                [!provide]                        PROVIDE (ADC12MCTL10, 0x834)
                [!provide]                        PROVIDE (ADC12MCTL10_L, 0x834)
                [!provide]                        PROVIDE (ADC12MCTL10_H, 0x835)
                [!provide]                        PROVIDE (ADC12MCTL11, 0x836)
                [!provide]                        PROVIDE (ADC12MCTL11_L, 0x836)
                [!provide]                        PROVIDE (ADC12MCTL11_H, 0x837)
                [!provide]                        PROVIDE (ADC12MCTL12, 0x838)
                [!provide]                        PROVIDE (ADC12MCTL12_L, 0x838)
                [!provide]                        PROVIDE (ADC12MCTL12_H, 0x839)
                [!provide]                        PROVIDE (ADC12MCTL13, 0x83a)
                [!provide]                        PROVIDE (ADC12MCTL13_L, 0x83a)
                [!provide]                        PROVIDE (ADC12MCTL13_H, 0x83b)
                [!provide]                        PROVIDE (ADC12MCTL14, 0x83c)
                [!provide]                        PROVIDE (ADC12MCTL14_L, 0x83c)
                [!provide]                        PROVIDE (ADC12MCTL14_H, 0x83d)
                [!provide]                        PROVIDE (ADC12MCTL15, 0x83e)
                [!provide]                        PROVIDE (ADC12MCTL15_L, 0x83e)
                [!provide]                        PROVIDE (ADC12MCTL15_H, 0x83f)
                [!provide]                        PROVIDE (ADC12MCTL16, 0x840)
                [!provide]                        PROVIDE (ADC12MCTL16_L, 0x840)
                [!provide]                        PROVIDE (ADC12MCTL16_H, 0x841)
                [!provide]                        PROVIDE (ADC12MCTL17, 0x842)
                [!provide]                        PROVIDE (ADC12MCTL17_L, 0x842)
                [!provide]                        PROVIDE (ADC12MCTL17_H, 0x843)
                [!provide]                        PROVIDE (ADC12MCTL18, 0x844)
                [!provide]                        PROVIDE (ADC12MCTL18_L, 0x844)
                [!provide]                        PROVIDE (ADC12MCTL18_H, 0x845)
                [!provide]                        PROVIDE (ADC12MCTL19, 0x846)
                [!provide]                        PROVIDE (ADC12MCTL19_L, 0x846)
                [!provide]                        PROVIDE (ADC12MCTL19_H, 0x847)
                [!provide]                        PROVIDE (ADC12MCTL20, 0x848)
                [!provide]                        PROVIDE (ADC12MCTL20_L, 0x848)
                [!provide]                        PROVIDE (ADC12MCTL20_H, 0x849)
                [!provide]                        PROVIDE (ADC12MCTL21, 0x84a)
                [!provide]                        PROVIDE (ADC12MCTL21_L, 0x84a)
                [!provide]                        PROVIDE (ADC12MCTL21_H, 0x84b)
                [!provide]                        PROVIDE (ADC12MCTL22, 0x84c)
                [!provide]                        PROVIDE (ADC12MCTL22_L, 0x84c)
                [!provide]                        PROVIDE (ADC12MCTL22_H, 0x84d)
                [!provide]                        PROVIDE (ADC12MCTL23, 0x84e)
                [!provide]                        PROVIDE (ADC12MCTL23_L, 0x84e)
                [!provide]                        PROVIDE (ADC12MCTL23_H, 0x84f)
                [!provide]                        PROVIDE (ADC12MCTL24, 0x850)
                [!provide]                        PROVIDE (ADC12MCTL24_L, 0x850)
                [!provide]                        PROVIDE (ADC12MCTL24_H, 0x851)
                [!provide]                        PROVIDE (ADC12MCTL25, 0x852)
                [!provide]                        PROVIDE (ADC12MCTL25_L, 0x852)
                [!provide]                        PROVIDE (ADC12MCTL25_H, 0x853)
                [!provide]                        PROVIDE (ADC12MCTL26, 0x854)
                [!provide]                        PROVIDE (ADC12MCTL26_L, 0x854)
                [!provide]                        PROVIDE (ADC12MCTL26_H, 0x855)
                [!provide]                        PROVIDE (ADC12MCTL27, 0x856)
                [!provide]                        PROVIDE (ADC12MCTL27_L, 0x856)
                [!provide]                        PROVIDE (ADC12MCTL27_H, 0x857)
                [!provide]                        PROVIDE (ADC12MCTL28, 0x858)
                [!provide]                        PROVIDE (ADC12MCTL28_L, 0x858)
                [!provide]                        PROVIDE (ADC12MCTL28_H, 0x859)
                [!provide]                        PROVIDE (ADC12MCTL29, 0x85a)
                [!provide]                        PROVIDE (ADC12MCTL29_L, 0x85a)
                [!provide]                        PROVIDE (ADC12MCTL29_H, 0x85b)
                [!provide]                        PROVIDE (ADC12MCTL30, 0x85c)
                [!provide]                        PROVIDE (ADC12MCTL30_L, 0x85c)
                [!provide]                        PROVIDE (ADC12MCTL30_H, 0x85d)
                [!provide]                        PROVIDE (ADC12MCTL31, 0x85e)
                [!provide]                        PROVIDE (ADC12MCTL31_L, 0x85e)
                [!provide]                        PROVIDE (ADC12MCTL31_H, 0x85f)
                [!provide]                        PROVIDE (ADC12MEM0, 0x860)
                [!provide]                        PROVIDE (ADC12MEM0_L, 0x860)
                [!provide]                        PROVIDE (ADC12MEM0_H, 0x861)
                [!provide]                        PROVIDE (ADC12MEM1, 0x862)
                [!provide]                        PROVIDE (ADC12MEM1_L, 0x862)
                [!provide]                        PROVIDE (ADC12MEM1_H, 0x863)
                [!provide]                        PROVIDE (ADC12MEM2, 0x864)
                [!provide]                        PROVIDE (ADC12MEM2_L, 0x864)
                [!provide]                        PROVIDE (ADC12MEM2_H, 0x865)
                [!provide]                        PROVIDE (ADC12MEM3, 0x866)
                [!provide]                        PROVIDE (ADC12MEM3_L, 0x866)
                [!provide]                        PROVIDE (ADC12MEM3_H, 0x867)
                [!provide]                        PROVIDE (ADC12MEM4, 0x868)
                [!provide]                        PROVIDE (ADC12MEM4_L, 0x868)
                [!provide]                        PROVIDE (ADC12MEM4_H, 0x869)
                [!provide]                        PROVIDE (ADC12MEM5, 0x86a)
                [!provide]                        PROVIDE (ADC12MEM5_L, 0x86a)
                [!provide]                        PROVIDE (ADC12MEM5_H, 0x86b)
                [!provide]                        PROVIDE (ADC12MEM6, 0x86c)
                [!provide]                        PROVIDE (ADC12MEM6_L, 0x86c)
                [!provide]                        PROVIDE (ADC12MEM6_H, 0x86d)
                [!provide]                        PROVIDE (ADC12MEM7, 0x86e)
                [!provide]                        PROVIDE (ADC12MEM7_L, 0x86e)
                [!provide]                        PROVIDE (ADC12MEM7_H, 0x86f)
                [!provide]                        PROVIDE (ADC12MEM8, 0x870)
                [!provide]                        PROVIDE (ADC12MEM8_L, 0x870)
                [!provide]                        PROVIDE (ADC12MEM8_H, 0x871)
                [!provide]                        PROVIDE (ADC12MEM9, 0x872)
                [!provide]                        PROVIDE (ADC12MEM9_L, 0x872)
                [!provide]                        PROVIDE (ADC12MEM9_H, 0x873)
                [!provide]                        PROVIDE (ADC12MEM10, 0x874)
                [!provide]                        PROVIDE (ADC12MEM10_L, 0x874)
                [!provide]                        PROVIDE (ADC12MEM10_H, 0x875)
                [!provide]                        PROVIDE (ADC12MEM11, 0x876)
                [!provide]                        PROVIDE (ADC12MEM11_L, 0x876)
                [!provide]                        PROVIDE (ADC12MEM11_H, 0x877)
                [!provide]                        PROVIDE (ADC12MEM12, 0x878)
                [!provide]                        PROVIDE (ADC12MEM12_L, 0x878)
                [!provide]                        PROVIDE (ADC12MEM12_H, 0x879)
                [!provide]                        PROVIDE (ADC12MEM13, 0x87a)
                [!provide]                        PROVIDE (ADC12MEM13_L, 0x87a)
                [!provide]                        PROVIDE (ADC12MEM13_H, 0x87b)
                [!provide]                        PROVIDE (ADC12MEM14, 0x87c)
                [!provide]                        PROVIDE (ADC12MEM14_L, 0x87c)
                [!provide]                        PROVIDE (ADC12MEM14_H, 0x87d)
                [!provide]                        PROVIDE (ADC12MEM15, 0x87e)
                [!provide]                        PROVIDE (ADC12MEM15_L, 0x87e)
                [!provide]                        PROVIDE (ADC12MEM15_H, 0x87f)
                [!provide]                        PROVIDE (ADC12MEM16, 0x880)
                [!provide]                        PROVIDE (ADC12MEM16_L, 0x880)
                [!provide]                        PROVIDE (ADC12MEM16_H, 0x881)
                [!provide]                        PROVIDE (ADC12MEM17, 0x882)
                [!provide]                        PROVIDE (ADC12MEM17_L, 0x882)
                [!provide]                        PROVIDE (ADC12MEM17_H, 0x883)
                [!provide]                        PROVIDE (ADC12MEM18, 0x884)
                [!provide]                        PROVIDE (ADC12MEM18_L, 0x884)
                [!provide]                        PROVIDE (ADC12MEM18_H, 0x885)
                [!provide]                        PROVIDE (ADC12MEM19, 0x886)
                [!provide]                        PROVIDE (ADC12MEM19_L, 0x886)
                [!provide]                        PROVIDE (ADC12MEM19_H, 0x887)
                [!provide]                        PROVIDE (ADC12MEM20, 0x888)
                [!provide]                        PROVIDE (ADC12MEM20_L, 0x888)
                [!provide]                        PROVIDE (ADC12MEM20_H, 0x889)
                [!provide]                        PROVIDE (ADC12MEM21, 0x88a)
                [!provide]                        PROVIDE (ADC12MEM21_L, 0x88a)
                [!provide]                        PROVIDE (ADC12MEM21_H, 0x88b)
                [!provide]                        PROVIDE (ADC12MEM22, 0x88c)
                [!provide]                        PROVIDE (ADC12MEM22_L, 0x88c)
                [!provide]                        PROVIDE (ADC12MEM22_H, 0x88d)
                [!provide]                        PROVIDE (ADC12MEM23, 0x88e)
                [!provide]                        PROVIDE (ADC12MEM23_L, 0x88e)
                [!provide]                        PROVIDE (ADC12MEM23_H, 0x88f)
                [!provide]                        PROVIDE (ADC12MEM24, 0x890)
                [!provide]                        PROVIDE (ADC12MEM24_L, 0x890)
                [!provide]                        PROVIDE (ADC12MEM24_H, 0x891)
                [!provide]                        PROVIDE (ADC12MEM25, 0x892)
                [!provide]                        PROVIDE (ADC12MEM25_L, 0x892)
                [!provide]                        PROVIDE (ADC12MEM25_H, 0x893)
                [!provide]                        PROVIDE (ADC12MEM26, 0x894)
                [!provide]                        PROVIDE (ADC12MEM26_L, 0x894)
                [!provide]                        PROVIDE (ADC12MEM26_H, 0x895)
                [!provide]                        PROVIDE (ADC12MEM27, 0x896)
                [!provide]                        PROVIDE (ADC12MEM27_L, 0x896)
                [!provide]                        PROVIDE (ADC12MEM27_H, 0x897)
                [!provide]                        PROVIDE (ADC12MEM28, 0x898)
                [!provide]                        PROVIDE (ADC12MEM28_L, 0x898)
                [!provide]                        PROVIDE (ADC12MEM28_H, 0x899)
                [!provide]                        PROVIDE (ADC12MEM29, 0x89a)
                [!provide]                        PROVIDE (ADC12MEM29_L, 0x89a)
                [!provide]                        PROVIDE (ADC12MEM29_H, 0x89b)
                [!provide]                        PROVIDE (ADC12MEM30, 0x89c)
                [!provide]                        PROVIDE (ADC12MEM30_L, 0x89c)
                [!provide]                        PROVIDE (ADC12MEM30_H, 0x89d)
                [!provide]                        PROVIDE (ADC12MEM31, 0x89e)
                [!provide]                        PROVIDE (ADC12MEM31_L, 0x89e)
                [!provide]                        PROVIDE (ADC12MEM31_H, 0x89f)
                [!provide]                        PROVIDE (AESACTL0, 0x9c0)
                [!provide]                        PROVIDE (AESACTL0_L, 0x9c0)
                [!provide]                        PROVIDE (AESACTL0_H, 0x9c1)
                [!provide]                        PROVIDE (AESACTL1, 0x9c2)
                [!provide]                        PROVIDE (AESACTL1_L, 0x9c2)
                [!provide]                        PROVIDE (AESACTL1_H, 0x9c3)
                [!provide]                        PROVIDE (AESASTAT, 0x9c4)
                [!provide]                        PROVIDE (AESASTAT_L, 0x9c4)
                [!provide]                        PROVIDE (AESASTAT_H, 0x9c5)
                [!provide]                        PROVIDE (AESAKEY, 0x9c6)
                [!provide]                        PROVIDE (AESAKEY_L, 0x9c6)
                [!provide]                        PROVIDE (AESAKEY_H, 0x9c7)
                [!provide]                        PROVIDE (AESADIN, 0x9c8)
                [!provide]                        PROVIDE (AESADIN_L, 0x9c8)
                [!provide]                        PROVIDE (AESADIN_H, 0x9c9)
                [!provide]                        PROVIDE (AESADOUT, 0x9ca)
                [!provide]                        PROVIDE (AESADOUT_L, 0x9ca)
                [!provide]                        PROVIDE (AESADOUT_H, 0x9cb)
                [!provide]                        PROVIDE (AESAXDIN, 0x9cc)
                [!provide]                        PROVIDE (AESAXDIN_L, 0x9cc)
                [!provide]                        PROVIDE (AESAXDIN_H, 0x9cd)
                [!provide]                        PROVIDE (AESAXIN, 0x9ce)
                [!provide]                        PROVIDE (AESAXIN_L, 0x9ce)
                [!provide]                        PROVIDE (AESAXIN_H, 0x9cf)
                [!provide]                        PROVIDE (CAPTIO0CTL, 0x43e)
                [!provide]                        PROVIDE (CAPTIO0CTL_L, 0x43e)
                [!provide]                        PROVIDE (CAPTIO0CTL_H, 0x43f)
                [!provide]                        PROVIDE (CAPTIO1CTL, 0x47e)
                [!provide]                        PROVIDE (CAPTIO1CTL_L, 0x47e)
                [!provide]                        PROVIDE (CAPTIO1CTL_H, 0x47f)
                [!provide]                        PROVIDE (CECTL0, 0x8c0)
                [!provide]                        PROVIDE (CECTL0_L, 0x8c0)
                [!provide]                        PROVIDE (CECTL0_H, 0x8c1)
                [!provide]                        PROVIDE (CECTL1, 0x8c2)
                [!provide]                        PROVIDE (CECTL1_L, 0x8c2)
                [!provide]                        PROVIDE (CECTL1_H, 0x8c3)
                [!provide]                        PROVIDE (CECTL2, 0x8c4)
                [!provide]                        PROVIDE (CECTL2_L, 0x8c4)
                [!provide]                        PROVIDE (CECTL2_H, 0x8c5)
                [!provide]                        PROVIDE (CECTL3, 0x8c6)
                [!provide]                        PROVIDE (CECTL3_L, 0x8c6)
                [!provide]                        PROVIDE (CECTL3_H, 0x8c7)
                [!provide]                        PROVIDE (CEINT, 0x8cc)
                [!provide]                        PROVIDE (CEINT_L, 0x8cc)
                [!provide]                        PROVIDE (CEINT_H, 0x8cd)
                [!provide]                        PROVIDE (CEIV, 0x8ce)
                [!provide]                        PROVIDE (CEIV_L, 0x8ce)
                [!provide]                        PROVIDE (CEIV_H, 0x8cf)
                [!provide]                        PROVIDE (CRCDI, 0x150)
                [!provide]                        PROVIDE (CRCDI_L, 0x150)
                [!provide]                        PROVIDE (CRCDI_H, 0x151)
                [!provide]                        PROVIDE (CRCDIRB, 0x152)
                [!provide]                        PROVIDE (CRCDIRB_L, 0x152)
                [!provide]                        PROVIDE (CRCDIRB_H, 0x153)
                [!provide]                        PROVIDE (CRCINIRES, 0x154)
                [!provide]                        PROVIDE (CRCINIRES_L, 0x154)
                [!provide]                        PROVIDE (CRCINIRES_H, 0x155)
                [!provide]                        PROVIDE (CRCRESR, 0x156)
                [!provide]                        PROVIDE (CRCRESR_L, 0x156)
                [!provide]                        PROVIDE (CRCRESR_H, 0x157)
                [!provide]                        PROVIDE (CSCTL0, 0x160)
                [!provide]                        PROVIDE (CSCTL0_L, 0x160)
                0x0000000000000161                PROVIDE (CSCTL0_H, 0x161)
                0x0000000000000162                PROVIDE (CSCTL1, 0x162)
                [!provide]                        PROVIDE (CSCTL1_L, 0x162)
                [!provide]                        PROVIDE (CSCTL1_H, 0x163)
                0x0000000000000164                PROVIDE (CSCTL2, 0x164)
                [!provide]                        PROVIDE (CSCTL2_L, 0x164)
                [!provide]                        PROVIDE (CSCTL2_H, 0x165)
                0x0000000000000166                PROVIDE (CSCTL3, 0x166)
                [!provide]                        PROVIDE (CSCTL3_L, 0x166)
                [!provide]                        PROVIDE (CSCTL3_H, 0x167)
                [!provide]                        PROVIDE (CSCTL4, 0x168)
                [!provide]                        PROVIDE (CSCTL4_L, 0x168)
                [!provide]                        PROVIDE (CSCTL4_H, 0x169)
                [!provide]                        PROVIDE (CSCTL5, 0x16a)
                [!provide]                        PROVIDE (CSCTL5_L, 0x16a)
                [!provide]                        PROVIDE (CSCTL5_H, 0x16b)
                [!provide]                        PROVIDE (CSCTL6, 0x16c)
                [!provide]                        PROVIDE (CSCTL6_L, 0x16c)
                [!provide]                        PROVIDE (CSCTL6_H, 0x16d)
                [!provide]                        PROVIDE (DMACTL0, 0x500)
                [!provide]                        PROVIDE (DMACTL1, 0x502)
                [!provide]                        PROVIDE (DMACTL2, 0x504)
                [!provide]                        PROVIDE (DMACTL3, 0x506)
                [!provide]                        PROVIDE (DMACTL4, 0x508)
                [!provide]                        PROVIDE (DMAIV, 0x50e)
                [!provide]                        PROVIDE (DMA0CTL, 0x510)
                [!provide]                        PROVIDE (DMA0SA, 0x512)
                [!provide]                        PROVIDE (DMA0SAL, 0x512)
                [!provide]                        PROVIDE (DMA0DA, 0x516)
                [!provide]                        PROVIDE (DMA0DAL, 0x516)
                [!provide]                        PROVIDE (DMA0SZ, 0x51a)
                [!provide]                        PROVIDE (DMA1CTL, 0x520)
                [!provide]                        PROVIDE (DMA1SA, 0x522)
                [!provide]                        PROVIDE (DMA1SAL, 0x522)
                [!provide]                        PROVIDE (DMA1DA, 0x526)
                [!provide]                        PROVIDE (DMA1DAL, 0x526)
                [!provide]                        PROVIDE (DMA1SZ, 0x52a)
                [!provide]                        PROVIDE (DMA2CTL, 0x530)
                [!provide]                        PROVIDE (DMA2SA, 0x532)
                [!provide]                        PROVIDE (DMA2SAL, 0x532)
                [!provide]                        PROVIDE (DMA2DA, 0x536)
                [!provide]                        PROVIDE (DMA2DAL, 0x536)
                [!provide]                        PROVIDE (DMA2SZ, 0x53a)
                [!provide]                        PROVIDE (FRCTL0, 0x140)
                [!provide]                        PROVIDE (FRCTL0_L, 0x140)
                [!provide]                        PROVIDE (FRCTL0_H, 0x141)
                [!provide]                        PROVIDE (GCCTL0, 0x144)
                [!provide]                        PROVIDE (GCCTL0_L, 0x144)
                [!provide]                        PROVIDE (GCCTL0_H, 0x145)
                [!provide]                        PROVIDE (GCCTL1, 0x146)
                [!provide]                        PROVIDE (GCCTL1_L, 0x146)
                [!provide]                        PROVIDE (GCCTL1_H, 0x147)
                [!provide]                        PROVIDE (MPUCTL0, 0x5a0)
                [!provide]                        PROVIDE (MPUCTL0_L, 0x5a0)
                [!provide]                        PROVIDE (MPUCTL0_H, 0x5a1)
                [!provide]                        PROVIDE (MPUCTL1, 0x5a2)
                [!provide]                        PROVIDE (MPUCTL1_L, 0x5a2)
                [!provide]                        PROVIDE (MPUCTL1_H, 0x5a3)
                [!provide]                        PROVIDE (MPUSEGB2, 0x5a4)
                [!provide]                        PROVIDE (MPUSEGB2_L, 0x5a4)
                [!provide]                        PROVIDE (MPUSEGB2_H, 0x5a5)
                [!provide]                        PROVIDE (MPUSEGB1, 0x5a6)
                [!provide]                        PROVIDE (MPUSEGB1_L, 0x5a6)
                [!provide]                        PROVIDE (MPUSEGB1_H, 0x5a7)
                [!provide]                        PROVIDE (MPUSAM, 0x5a8)
                [!provide]                        PROVIDE (MPUSAM_L, 0x5a8)
                [!provide]                        PROVIDE (MPUSAM_H, 0x5a9)
                [!provide]                        PROVIDE (MPUIPC0, 0x5aa)
                [!provide]                        PROVIDE (MPUIPC0_L, 0x5aa)
                [!provide]                        PROVIDE (MPUIPC0_H, 0x5ab)
                [!provide]                        PROVIDE (MPUIPSEGB2, 0x5ac)
                [!provide]                        PROVIDE (MPUIPSEGB2_L, 0x5ac)
                [!provide]                        PROVIDE (MPUIPSEGB2_H, 0x5ad)
                [!provide]                        PROVIDE (MPUIPSEGB1, 0x5ae)
                [!provide]                        PROVIDE (MPUIPSEGB1_L, 0x5ae)
                [!provide]                        PROVIDE (MPUIPSEGB1_H, 0x5af)
                [!provide]                        PROVIDE (MPY, 0x4c0)
                [!provide]                        PROVIDE (MPY_L, 0x4c0)
                [!provide]                        PROVIDE (MPY_H, 0x4c1)
                [!provide]                        PROVIDE (MPYS, 0x4c2)
                [!provide]                        PROVIDE (MPYS_L, 0x4c2)
                [!provide]                        PROVIDE (MPYS_H, 0x4c3)
                [!provide]                        PROVIDE (MAC, 0x4c4)
                [!provide]                        PROVIDE (MAC_L, 0x4c4)
                [!provide]                        PROVIDE (MAC_H, 0x4c5)
                [!provide]                        PROVIDE (MACS, 0x4c6)
                [!provide]                        PROVIDE (MACS_L, 0x4c6)
                [!provide]                        PROVIDE (MACS_H, 0x4c7)
                [!provide]                        PROVIDE (OP2, 0x4c8)
                [!provide]                        PROVIDE (OP2_L, 0x4c8)
                [!provide]                        PROVIDE (OP2_H, 0x4c9)
                [!provide]                        PROVIDE (RESLO, 0x4ca)
                [!provide]                        PROVIDE (RESLO_L, 0x4ca)
                [!provide]                        PROVIDE (RESLO_H, 0x4cb)
                [!provide]                        PROVIDE (RESHI, 0x4cc)
                [!provide]                        PROVIDE (RESHI_L, 0x4cc)
                [!provide]                        PROVIDE (RESHI_H, 0x4cd)
                [!provide]                        PROVIDE (SUMEXT, 0x4ce)
                [!provide]                        PROVIDE (SUMEXT_L, 0x4ce)
                [!provide]                        PROVIDE (SUMEXT_H, 0x4cf)
                [!provide]                        PROVIDE (MPY32L, 0x4d0)
                [!provide]                        PROVIDE (MPY32L_L, 0x4d0)
                [!provide]                        PROVIDE (MPY32L_H, 0x4d1)
                [!provide]                        PROVIDE (MPY32H, 0x4d2)
                [!provide]                        PROVIDE (MPY32H_L, 0x4d2)
                [!provide]                        PROVIDE (MPY32H_H, 0x4d3)
                [!provide]                        PROVIDE (MPYS32L, 0x4d4)
                [!provide]                        PROVIDE (MPYS32L_L, 0x4d4)
                [!provide]                        PROVIDE (MPYS32L_H, 0x4d5)
                [!provide]                        PROVIDE (MPYS32H, 0x4d6)
                [!provide]                        PROVIDE (MPYS32H_L, 0x4d6)
                [!provide]                        PROVIDE (MPYS32H_H, 0x4d7)
                [!provide]                        PROVIDE (MAC32L, 0x4d8)
                [!provide]                        PROVIDE (MAC32L_L, 0x4d8)
                [!provide]                        PROVIDE (MAC32L_H, 0x4d9)
                [!provide]                        PROVIDE (MAC32H, 0x4da)
                [!provide]                        PROVIDE (MAC32H_L, 0x4da)
                [!provide]                        PROVIDE (MAC32H_H, 0x4db)
                [!provide]                        PROVIDE (MACS32L, 0x4dc)
                [!provide]                        PROVIDE (MACS32L_L, 0x4dc)
                [!provide]                        PROVIDE (MACS32L_H, 0x4dd)
                [!provide]                        PROVIDE (MACS32H, 0x4de)
                [!provide]                        PROVIDE (MACS32H_L, 0x4de)
                [!provide]                        PROVIDE (MACS32H_H, 0x4df)
                [!provide]                        PROVIDE (OP2L, 0x4e0)
                [!provide]                        PROVIDE (OP2L_L, 0x4e0)
                [!provide]                        PROVIDE (OP2L_H, 0x4e1)
                [!provide]                        PROVIDE (OP2H, 0x4e2)
                [!provide]                        PROVIDE (OP2H_L, 0x4e2)
                [!provide]                        PROVIDE (OP2H_H, 0x4e3)
                [!provide]                        PROVIDE (RES0, 0x4e4)
                [!provide]                        PROVIDE (RES0_L, 0x4e4)
                [!provide]                        PROVIDE (RES0_H, 0x4e5)
                [!provide]                        PROVIDE (RES1, 0x4e6)
                [!provide]                        PROVIDE (RES1_L, 0x4e6)
                [!provide]                        PROVIDE (RES1_H, 0x4e7)
                [!provide]                        PROVIDE (RES2, 0x4e8)
                [!provide]                        PROVIDE (RES2_L, 0x4e8)
                [!provide]                        PROVIDE (RES2_H, 0x4e9)
                [!provide]                        PROVIDE (RES3, 0x4ea)
                [!provide]                        PROVIDE (RES3_L, 0x4ea)
                [!provide]                        PROVIDE (RES3_H, 0x4eb)
                [!provide]                        PROVIDE (MPY32CTL0, 0x4ec)
                [!provide]                        PROVIDE (MPY32CTL0_L, 0x4ec)
                [!provide]                        PROVIDE (MPY32CTL0_H, 0x4ed)
                [!provide]                        PROVIDE (PMMCTL0, 0x120)
                [!provide]                        PROVIDE (PMMCTL0_L, 0x120)
                [!provide]                        PROVIDE (PMMCTL0_H, 0x121)
                [!provide]                        PROVIDE (PMMIFG, 0x12a)
                [!provide]                        PROVIDE (PMMIFG_L, 0x12a)
                [!provide]                        PROVIDE (PMMIFG_H, 0x12b)
                0x0000000000000130                PROVIDE (PM5CTL0, 0x130)
                [!provide]                        PROVIDE (PM5CTL0_L, 0x130)
                [!provide]                        PROVIDE (PM5CTL0_H, 0x131)
                [!provide]                        PROVIDE (PAIN, 0x200)
                [!provide]                        PROVIDE (PAIN_L, 0x200)
                [!provide]                        PROVIDE (PAIN_H, 0x201)
                [!provide]                        PROVIDE (PAOUT, 0x202)
                [!provide]                        PROVIDE (PAOUT_L, 0x202)
                [!provide]                        PROVIDE (PAOUT_H, 0x203)
                [!provide]                        PROVIDE (PADIR, 0x204)
                [!provide]                        PROVIDE (PADIR_L, 0x204)
                [!provide]                        PROVIDE (PADIR_H, 0x205)
                [!provide]                        PROVIDE (PAREN, 0x206)
                [!provide]                        PROVIDE (PAREN_L, 0x206)
                [!provide]                        PROVIDE (PAREN_H, 0x207)
                [!provide]                        PROVIDE (PASEL0, 0x20a)
                [!provide]                        PROVIDE (PASEL0_L, 0x20a)
                0x000000000000020b                PROVIDE (PASEL0_H, 0x20b)
                [!provide]                        PROVIDE (PASEL1, 0x20c)
                [!provide]                        PROVIDE (PASEL1_L, 0x20c)
                0x000000000000020d                PROVIDE (PASEL1_H, 0x20d)
                [!provide]                        PROVIDE (PASELC, 0x216)
                [!provide]                        PROVIDE (PASELC_L, 0x216)
                [!provide]                        PROVIDE (PASELC_H, 0x217)
                [!provide]                        PROVIDE (PAIES, 0x218)
                [!provide]                        PROVIDE (PAIES_L, 0x218)
                [!provide]                        PROVIDE (PAIES_H, 0x219)
                [!provide]                        PROVIDE (PAIE, 0x21a)
                [!provide]                        PROVIDE (PAIE_L, 0x21a)
                [!provide]                        PROVIDE (PAIE_H, 0x21b)
                [!provide]                        PROVIDE (PAIFG, 0x21c)
                [!provide]                        PROVIDE (PAIFG_L, 0x21c)
                [!provide]                        PROVIDE (PAIFG_H, 0x21d)
                [!provide]                        PROVIDE (P1IV, 0x20e)
                [!provide]                        PROVIDE (P2IV, 0x21e)
                [!provide]                        PROVIDE (PBIN, 0x220)
                [!provide]                        PROVIDE (PBIN_L, 0x220)
                [!provide]                        PROVIDE (PBIN_H, 0x221)
                [!provide]                        PROVIDE (PBOUT, 0x222)
                [!provide]                        PROVIDE (PBOUT_L, 0x222)
                [!provide]                        PROVIDE (PBOUT_H, 0x223)
                [!provide]                        PROVIDE (PBDIR, 0x224)
                [!provide]                        PROVIDE (PBDIR_L, 0x224)
                0x0000000000000225                PROVIDE (PBDIR_H, 0x225)
                [!provide]                        PROVIDE (PBREN, 0x226)
                [!provide]                        PROVIDE (PBREN_L, 0x226)
                [!provide]                        PROVIDE (PBREN_H, 0x227)
                [!provide]                        PROVIDE (PBSEL0, 0x22a)
                [!provide]                        PROVIDE (PBSEL0_L, 0x22a)
                [!provide]                        PROVIDE (PBSEL0_H, 0x22b)
                [!provide]                        PROVIDE (PBSEL1, 0x22c)
                [!provide]                        PROVIDE (PBSEL1_L, 0x22c)
                [!provide]                        PROVIDE (PBSEL1_H, 0x22d)
                [!provide]                        PROVIDE (PBSELC, 0x236)
                [!provide]                        PROVIDE (PBSELC_L, 0x236)
                [!provide]                        PROVIDE (PBSELC_H, 0x237)
                [!provide]                        PROVIDE (PBIES, 0x238)
                [!provide]                        PROVIDE (PBIES_L, 0x238)
                [!provide]                        PROVIDE (PBIES_H, 0x239)
                [!provide]                        PROVIDE (PBIE, 0x23a)
                [!provide]                        PROVIDE (PBIE_L, 0x23a)
                [!provide]                        PROVIDE (PBIE_H, 0x23b)
                [!provide]                        PROVIDE (PBIFG, 0x23c)
                [!provide]                        PROVIDE (PBIFG_L, 0x23c)
                [!provide]                        PROVIDE (PBIFG_H, 0x23d)
                [!provide]                        PROVIDE (P3IV, 0x22e)
                [!provide]                        PROVIDE (P4IV, 0x23e)
                [!provide]                        PROVIDE (PJIN, 0x320)
                [!provide]                        PROVIDE (PJIN_L, 0x320)
                [!provide]                        PROVIDE (PJIN_H, 0x321)
                [!provide]                        PROVIDE (PJOUT, 0x322)
                [!provide]                        PROVIDE (PJOUT_L, 0x322)
                [!provide]                        PROVIDE (PJOUT_H, 0x323)
                [!provide]                        PROVIDE (PJDIR, 0x324)
                [!provide]                        PROVIDE (PJDIR_L, 0x324)
                [!provide]                        PROVIDE (PJDIR_H, 0x325)
                [!provide]                        PROVIDE (PJREN, 0x326)
                [!provide]                        PROVIDE (PJREN_L, 0x326)
                [!provide]                        PROVIDE (PJREN_H, 0x327)
                [!provide]                        PROVIDE (PJSEL0, 0x32a)
                [!provide]                        PROVIDE (PJSEL0_L, 0x32a)
                [!provide]                        PROVIDE (PJSEL0_H, 0x32b)
                [!provide]                        PROVIDE (PJSEL1, 0x32c)
                [!provide]                        PROVIDE (PJSEL1_L, 0x32c)
                [!provide]                        PROVIDE (PJSEL1_H, 0x32d)
                [!provide]                        PROVIDE (PJSELC, 0x336)
                [!provide]                        PROVIDE (PJSELC_L, 0x336)
                [!provide]                        PROVIDE (PJSELC_H, 0x337)
                [!provide]                        PROVIDE (REFCTL0, 0x1b0)
                [!provide]                        PROVIDE (REFCTL0_L, 0x1b0)
                [!provide]                        PROVIDE (REFCTL0_H, 0x1b1)
                [!provide]                        PROVIDE (RTCCTL01, 0x4a0)
                [!provide]                        PROVIDE (RTCCTL01_L, 0x4a0)
                [!provide]                        PROVIDE (RTCCTL01_H, 0x4a1)
                [!provide]                        PROVIDE (RTCCTL23, 0x4a2)
                [!provide]                        PROVIDE (RTCCTL23_L, 0x4a2)
                [!provide]                        PROVIDE (RTCCTL23_H, 0x4a3)
                [!provide]                        PROVIDE (RTCPS0CTL, 0x4a8)
                [!provide]                        PROVIDE (RTCPS0CTL_L, 0x4a8)
                [!provide]                        PROVIDE (RTCPS0CTL_H, 0x4a9)
                [!provide]                        PROVIDE (RTCPS1CTL, 0x4aa)
                [!provide]                        PROVIDE (RTCPS1CTL_L, 0x4aa)
                [!provide]                        PROVIDE (RTCPS1CTL_H, 0x4ab)
                [!provide]                        PROVIDE (RTCPS, 0x4ac)
                [!provide]                        PROVIDE (RTCPS_L, 0x4ac)
                [!provide]                        PROVIDE (RTCPS_H, 0x4ad)
                [!provide]                        PROVIDE (RTCIV, 0x4ae)
                [!provide]                        PROVIDE (RTCTIM0, 0x4b0)
                [!provide]                        PROVIDE (RTCTIM0_L, 0x4b0)
                [!provide]                        PROVIDE (RTCTIM0_H, 0x4b1)
                [!provide]                        PROVIDE (RTCTIM1, 0x4b2)
                [!provide]                        PROVIDE (RTCTIM1_L, 0x4b2)
                [!provide]                        PROVIDE (RTCTIM1_H, 0x4b3)
                [!provide]                        PROVIDE (RTCDATE, 0x4b4)
                [!provide]                        PROVIDE (RTCDATE_L, 0x4b4)
                [!provide]                        PROVIDE (RTCDATE_H, 0x4b5)
                [!provide]                        PROVIDE (RTCYEAR, 0x4b6)
                [!provide]                        PROVIDE (RTCYEAR_L, 0x4b6)
                [!provide]                        PROVIDE (RTCYEAR_H, 0x4b7)
                [!provide]                        PROVIDE (RTCAMINHR, 0x4b8)
                [!provide]                        PROVIDE (RTCAMINHR_L, 0x4b8)
                [!provide]                        PROVIDE (RTCAMINHR_H, 0x4b9)
                [!provide]                        PROVIDE (RTCADOWDAY, 0x4ba)
                [!provide]                        PROVIDE (RTCADOWDAY_L, 0x4ba)
                [!provide]                        PROVIDE (RTCADOWDAY_H, 0x4bb)
                [!provide]                        PROVIDE (BIN2BCD, 0x4bc)
                [!provide]                        PROVIDE (BCD2BIN, 0x4be)
                [!provide]                        PROVIDE (SFRIE1, 0x100)
                [!provide]                        PROVIDE (SFRIE1_L, 0x100)
                [!provide]                        PROVIDE (SFRIE1_H, 0x101)
                [!provide]                        PROVIDE (SFRIFG1, 0x102)
                [!provide]                        PROVIDE (SFRIFG1_L, 0x102)
                [!provide]                        PROVIDE (SFRIFG1_H, 0x103)
                [!provide]                        PROVIDE (SFRRPCR, 0x104)
                [!provide]                        PROVIDE (SFRRPCR_L, 0x104)
                [!provide]                        PROVIDE (SFRRPCR_H, 0x105)
                [!provide]                        PROVIDE (SYSCTL, 0x180)
                [!provide]                        PROVIDE (SYSCTL_L, 0x180)
                [!provide]                        PROVIDE (SYSCTL_H, 0x181)
                [!provide]                        PROVIDE (SYSJMBC, 0x186)
                [!provide]                        PROVIDE (SYSJMBC_L, 0x186)
                [!provide]                        PROVIDE (SYSJMBC_H, 0x187)
                [!provide]                        PROVIDE (SYSJMBI0, 0x188)
                [!provide]                        PROVIDE (SYSJMBI0_L, 0x188)
                [!provide]                        PROVIDE (SYSJMBI0_H, 0x189)
                [!provide]                        PROVIDE (SYSJMBI1, 0x18a)
                [!provide]                        PROVIDE (SYSJMBI1_L, 0x18a)
                [!provide]                        PROVIDE (SYSJMBI1_H, 0x18b)
                [!provide]                        PROVIDE (SYSJMBO0, 0x18c)
                [!provide]                        PROVIDE (SYSJMBO0_L, 0x18c)
                [!provide]                        PROVIDE (SYSJMBO0_H, 0x18d)
                [!provide]                        PROVIDE (SYSJMBO1, 0x18e)
                [!provide]                        PROVIDE (SYSJMBO1_L, 0x18e)
                [!provide]                        PROVIDE (SYSJMBO1_H, 0x18f)
                [!provide]                        PROVIDE (SYSUNIV, 0x19a)
                [!provide]                        PROVIDE (SYSUNIV_L, 0x19a)
                [!provide]                        PROVIDE (SYSUNIV_H, 0x19b)
                [!provide]                        PROVIDE (SYSSNIV, 0x19c)
                [!provide]                        PROVIDE (SYSSNIV_L, 0x19c)
                [!provide]                        PROVIDE (SYSSNIV_H, 0x19d)
                [!provide]                        PROVIDE (SYSRSTIV, 0x19e)
                [!provide]                        PROVIDE (SYSRSTIV_L, 0x19e)
                [!provide]                        PROVIDE (SYSRSTIV_H, 0x19f)
                0x0000000000000340                PROVIDE (TA0CTL, 0x340)
                0x0000000000000342                PROVIDE (TA0CCTL0, 0x342)
                [!provide]                        PROVIDE (TA0CCTL1, 0x344)
                [!provide]                        PROVIDE (TA0CCTL2, 0x346)
                [!provide]                        PROVIDE (TA0R, 0x350)
                0x0000000000000352                PROVIDE (TA0CCR0, 0x352)
                [!provide]                        PROVIDE (TA0CCR1, 0x354)
                [!provide]                        PROVIDE (TA0CCR2, 0x356)
                [!provide]                        PROVIDE (TA0IV, 0x36e)
                [!provide]                        PROVIDE (TA0EX0, 0x360)
                [!provide]                        PROVIDE (TA1CTL, 0x380)
                [!provide]                        PROVIDE (TA1CCTL0, 0x382)
                [!provide]                        PROVIDE (TA1CCTL1, 0x384)
                [!provide]                        PROVIDE (TA1CCTL2, 0x386)
                [!provide]                        PROVIDE (TA1R, 0x390)
                [!provide]                        PROVIDE (TA1CCR0, 0x392)
                [!provide]                        PROVIDE (TA1CCR1, 0x394)
                [!provide]                        PROVIDE (TA1CCR2, 0x396)
                [!provide]                        PROVIDE (TA1IV, 0x3ae)
                [!provide]                        PROVIDE (TA1EX0, 0x3a0)
                [!provide]                        PROVIDE (TA2CTL, 0x400)
                [!provide]                        PROVIDE (TA2CCTL0, 0x402)
                [!provide]                        PROVIDE (TA2CCTL1, 0x404)
                [!provide]                        PROVIDE (TA2R, 0x410)
                [!provide]                        PROVIDE (TA2CCR0, 0x412)
                [!provide]                        PROVIDE (TA2CCR1, 0x414)
                [!provide]                        PROVIDE (TA2IV, 0x42e)
                [!provide]                        PROVIDE (TA2EX0, 0x420)
                [!provide]                        PROVIDE (TA3CTL, 0x440)
                [!provide]                        PROVIDE (TA3CCTL0, 0x442)
                [!provide]                        PROVIDE (TA3CCTL1, 0x444)
                [!provide]                        PROVIDE (TA3R, 0x450)
                [!provide]                        PROVIDE (TA3CCR0, 0x452)
                [!provide]                        PROVIDE (TA3CCR1, 0x454)
                [!provide]                        PROVIDE (TA3IV, 0x46e)
                [!provide]                        PROVIDE (TA3EX0, 0x460)
                [!provide]                        PROVIDE (TB0CTL, 0x3c0)
                [!provide]                        PROVIDE (TB0CCTL0, 0x3c2)
                [!provide]                        PROVIDE (TB0CCTL1, 0x3c4)
                [!provide]                        PROVIDE (TB0CCTL2, 0x3c6)
                [!provide]                        PROVIDE (TB0CCTL3, 0x3c8)
                [!provide]                        PROVIDE (TB0CCTL4, 0x3ca)
                [!provide]                        PROVIDE (TB0CCTL5, 0x3cc)
                [!provide]                        PROVIDE (TB0CCTL6, 0x3ce)
                [!provide]                        PROVIDE (TB0R, 0x3d0)
                [!provide]                        PROVIDE (TB0CCR0, 0x3d2)
                [!provide]                        PROVIDE (TB0CCR1, 0x3d4)
                [!provide]                        PROVIDE (TB0CCR2, 0x3d6)
                [!provide]                        PROVIDE (TB0CCR3, 0x3d8)
                [!provide]                        PROVIDE (TB0CCR4, 0x3da)
                [!provide]                        PROVIDE (TB0CCR5, 0x3dc)
                [!provide]                        PROVIDE (TB0CCR6, 0x3de)
                [!provide]                        PROVIDE (TB0EX0, 0x3e0)
                [!provide]                        PROVIDE (TB0IV, 0x3ee)
                0x00000000000005c0                PROVIDE (UCA0CTLW0, 0x5c0)
                [!provide]                        PROVIDE (UCA0CTLW0_L, 0x5c0)
                [!provide]                        PROVIDE (UCA0CTLW0_H, 0x5c1)
                [!provide]                        PROVIDE (UCA0CTLW1, 0x5c2)
                [!provide]                        PROVIDE (UCA0CTLW1_L, 0x5c2)
                [!provide]                        PROVIDE (UCA0CTLW1_H, 0x5c3)
                0x00000000000005c6                PROVIDE (UCA0BRW, 0x5c6)
                [!provide]                        PROVIDE (UCA0BRW_L, 0x5c6)
                [!provide]                        PROVIDE (UCA0BRW_H, 0x5c7)
                0x00000000000005c8                PROVIDE (UCA0MCTLW, 0x5c8)
                0x00000000000005c8                PROVIDE (UCA0MCTLW_L, 0x5c8)
                0x00000000000005c9                PROVIDE (UCA0MCTLW_H, 0x5c9)
                [!provide]                        PROVIDE (UCA0STATW, 0x5ca)
                0x00000000000005cc                PROVIDE (UCA0RXBUF, 0x5cc)
                [!provide]                        PROVIDE (UCA0RXBUF_L, 0x5cc)
                [!provide]                        PROVIDE (UCA0RXBUF_H, 0x5cd)
                0x00000000000005ce                PROVIDE (UCA0TXBUF, 0x5ce)
                [!provide]                        PROVIDE (UCA0TXBUF_L, 0x5ce)
                [!provide]                        PROVIDE (UCA0TXBUF_H, 0x5cf)
                [!provide]                        PROVIDE (UCA0ABCTL, 0x5d0)
                [!provide]                        PROVIDE (UCA0IRCTL, 0x5d2)
                [!provide]                        PROVIDE (UCA0IRCTL_L, 0x5d2)
                [!provide]                        PROVIDE (UCA0IRCTL_H, 0x5d3)
                0x00000000000005da                PROVIDE (UCA0IE, 0x5da)
                [!provide]                        PROVIDE (UCA0IE_L, 0x5da)
                [!provide]                        PROVIDE (UCA0IE_H, 0x5db)
                0x00000000000005dc                PROVIDE (UCA0IFG, 0x5dc)
                [!provide]                        PROVIDE (UCA0IFG_L, 0x5dc)
                [!provide]                        PROVIDE (UCA0IFG_H, 0x5dd)
                [!provide]                        PROVIDE (UCA0IV, 0x5de)
                [!provide]                        PROVIDE (UCA1CTLW0, 0x5e0)
                [!provide]                        PROVIDE (UCA1CTLW0_L, 0x5e0)
                [!provide]                        PROVIDE (UCA1CTLW0_H, 0x5e1)
                [!provide]                        PROVIDE (UCA1CTLW1, 0x5e2)
                [!provide]                        PROVIDE (UCA1CTLW1_L, 0x5e2)
                [!provide]                        PROVIDE (UCA1CTLW1_H, 0x5e3)
                [!provide]                        PROVIDE (UCA1BRW, 0x5e6)
                [!provide]                        PROVIDE (UCA1BRW_L, 0x5e6)
                [!provide]                        PROVIDE (UCA1BRW_H, 0x5e7)
                [!provide]                        PROVIDE (UCA1MCTLW, 0x5e8)
                [!provide]                        PROVIDE (UCA1MCTLW_L, 0x5e8)
                [!provide]                        PROVIDE (UCA1MCTLW_H, 0x5e9)
                [!provide]                        PROVIDE (UCA1STATW, 0x5ea)
                [!provide]                        PROVIDE (UCA1RXBUF, 0x5ec)
                [!provide]                        PROVIDE (UCA1RXBUF_L, 0x5ec)
                [!provide]                        PROVIDE (UCA1RXBUF_H, 0x5ed)
                [!provide]                        PROVIDE (UCA1TXBUF, 0x5ee)
                [!provide]                        PROVIDE (UCA1TXBUF_L, 0x5ee)
                [!provide]                        PROVIDE (UCA1TXBUF_H, 0x5ef)
                [!provide]                        PROVIDE (UCA1ABCTL, 0x5f0)
                [!provide]                        PROVIDE (UCA1IRCTL, 0x5f2)
                [!provide]                        PROVIDE (UCA1IRCTL_L, 0x5f2)
                [!provide]                        PROVIDE (UCA1IRCTL_H, 0x5f3)
                [!provide]                        PROVIDE (UCA1IE, 0x5fa)
                [!provide]                        PROVIDE (UCA1IE_L, 0x5fa)
                [!provide]                        PROVIDE (UCA1IE_H, 0x5fb)
                [!provide]                        PROVIDE (UCA1IFG, 0x5fc)
                [!provide]                        PROVIDE (UCA1IFG_L, 0x5fc)
                [!provide]                        PROVIDE (UCA1IFG_H, 0x5fd)
                [!provide]                        PROVIDE (UCA1IV, 0x5fe)
                [!provide]                        PROVIDE (UCB0CTLW0, 0x640)
                [!provide]                        PROVIDE (UCB0CTLW0_L, 0x640)
                [!provide]                        PROVIDE (UCB0CTLW0_H, 0x641)
                [!provide]                        PROVIDE (UCB0CTLW1, 0x642)
                [!provide]                        PROVIDE (UCB0CTLW1_L, 0x642)
                [!provide]                        PROVIDE (UCB0CTLW1_H, 0x643)
                [!provide]                        PROVIDE (UCB0BRW, 0x646)
                [!provide]                        PROVIDE (UCB0BRW_L, 0x646)
                [!provide]                        PROVIDE (UCB0BRW_H, 0x647)
                [!provide]                        PROVIDE (UCB0STATW, 0x648)
                [!provide]                        PROVIDE (UCB0STATW_L, 0x648)
                [!provide]                        PROVIDE (UCB0STATW_H, 0x649)
                [!provide]                        PROVIDE (UCB0TBCNT, 0x64a)
                [!provide]                        PROVIDE (UCB0TBCNT_L, 0x64a)
                [!provide]                        PROVIDE (UCB0TBCNT_H, 0x64b)
                [!provide]                        PROVIDE (UCB0RXBUF, 0x64c)
                [!provide]                        PROVIDE (UCB0RXBUF_L, 0x64c)
                [!provide]                        PROVIDE (UCB0RXBUF_H, 0x64d)
                [!provide]                        PROVIDE (UCB0TXBUF, 0x64e)
                [!provide]                        PROVIDE (UCB0TXBUF_L, 0x64e)
                [!provide]                        PROVIDE (UCB0TXBUF_H, 0x64f)
                [!provide]                        PROVIDE (UCB0I2COA0, 0x654)
                [!provide]                        PROVIDE (UCB0I2COA0_L, 0x654)
                [!provide]                        PROVIDE (UCB0I2COA0_H, 0x655)
                [!provide]                        PROVIDE (UCB0I2COA1, 0x656)
                [!provide]                        PROVIDE (UCB0I2COA1_L, 0x656)
                [!provide]                        PROVIDE (UCB0I2COA1_H, 0x657)
                [!provide]                        PROVIDE (UCB0I2COA2, 0x658)
                [!provide]                        PROVIDE (UCB0I2COA2_L, 0x658)
                [!provide]                        PROVIDE (UCB0I2COA2_H, 0x659)
                [!provide]                        PROVIDE (UCB0I2COA3, 0x65a)
                [!provide]                        PROVIDE (UCB0I2COA3_L, 0x65a)
                [!provide]                        PROVIDE (UCB0I2COA3_H, 0x65b)
                [!provide]                        PROVIDE (UCB0ADDRX, 0x65c)
                [!provide]                        PROVIDE (UCB0ADDRX_L, 0x65c)
                [!provide]                        PROVIDE (UCB0ADDRX_H, 0x65d)
                [!provide]                        PROVIDE (UCB0ADDMASK, 0x65e)
                [!provide]                        PROVIDE (UCB0ADDMASK_L, 0x65e)
                [!provide]                        PROVIDE (UCB0ADDMASK_H, 0x65f)
                [!provide]                        PROVIDE (UCB0I2CSA, 0x660)
                [!provide]                        PROVIDE (UCB0I2CSA_L, 0x660)
                [!provide]                        PROVIDE (UCB0I2CSA_H, 0x661)
                [!provide]                        PROVIDE (UCB0IE, 0x66a)
                [!provide]                        PROVIDE (UCB0IE_L, 0x66a)
                [!provide]                        PROVIDE (UCB0IE_H, 0x66b)
                [!provide]                        PROVIDE (UCB0IFG, 0x66c)
                [!provide]                        PROVIDE (UCB0IFG_L, 0x66c)
                [!provide]                        PROVIDE (UCB0IFG_H, 0x66d)
                [!provide]                        PROVIDE (UCB0IV, 0x66e)
                0x000000000000015c                PROVIDE (WDTCTL, 0x15c)
                [!provide]                        PROVIDE (WDTCTL_L, 0x15c)
                [!provide]                        PROVIDE (WDTCTL_H, 0x15d)
OUTPUT(/home/taste/obc-firmware/obc-model/work/binaries//msp430_obc elf32-msp430)
